
apps/libc/build/x86_64/mmap2_c:     file format elf64-x86-64


Disassembly of section .init:

0000000000000568 <_init>:
 568:	50                   	push   %rax
 569:	58                   	pop    %rax
 56a:	c3                   	ret    

Disassembly of section .plt:

0000000000000570 <.plt>:
 570:	ff 35 92 5a 20 00    	push   0x205a92(%rip)        # 206008 <_GLOBAL_OFFSET_TABLE_+0x8>
 576:	ff 25 94 5a 20 00    	jmp    *0x205a94(%rip)        # 206010 <_GLOBAL_OFFSET_TABLE_+0x10>
 57c:	0f 1f 40 00          	nopl   0x0(%rax)

Disassembly of section .plt.got:

0000000000000580 <.plt.got>:
 580:	ff 25 53 5a 20 00    	jmp    *0x205a53(%rip)        # 205fd9 <_DYNAMIC+0x189>
 586:	66 90                	xchg   %ax,%ax
 588:	ff 25 53 5a 20 00    	jmp    *0x205a53(%rip)        # 205fe1 <_DYNAMIC+0x191>
 58e:	66 90                	xchg   %ax,%ax
 590:	ff 25 63 5a 20 00    	jmp    *0x205a63(%rip)        # 205ff9 <_DYNAMIC+0x1a9>
 596:	66 90                	xchg   %ax,%ax

Disassembly of section .text:

00000000000005a0 <exit>:
     5a0:	48 83 ec 18          	sub    $0x18,%rsp
     5a4:	89 7c 24 0c          	mov    %edi,0xc(%rsp)
     5a8:	e8 bb 08 00 00       	call   e68 <__funcs_on_exit>
     5ad:	e8 b7 08 00 00       	call   e69 <__libc_exit_fini>
     5b2:	31 c0                	xor    %eax,%eax
     5b4:	e8 b2 3e 00 00       	call   446b <__stdio_exit>
     5b9:	8b 7c 24 0c          	mov    0xc(%rsp),%edi
     5bd:	e8 fa 2e 00 00       	call   34bc <_Exit>

00000000000005c2 <_start>:
     5c2:	48 31 ed             	xor    %rbp,%rbp
     5c5:	48 89 e7             	mov    %rsp,%rdi
     5c8:	48 8d 35 81 58 20 00 	lea    0x205881(%rip),%rsi        # 205e50 <_DYNAMIC>
     5cf:	48 83 e4 f0          	and    $0xfffffffffffffff0,%rsp
     5d3:	e8 00 00 00 00       	call   5d8 <_start_c>

00000000000005d8 <_start_c>:
     5d8:	48 81 ec 90 01 00 00 	sub    $0x190,%rsp
     5df:	8b 07                	mov    (%rdi),%eax
     5e1:	49 89 f8             	mov    %rdi,%r8
     5e4:	48 89 f1             	mov    %rsi,%rcx
     5e7:	ff c0                	inc    %eax
     5e9:	48 98                	cltq   
     5eb:	49 8b 74 c0 08       	mov    0x8(%r8,%rax,8),%rsi
     5f0:	48 89 c2             	mov    %rax,%rdx
     5f3:	48 ff c0             	inc    %rax
     5f6:	48 85 f6             	test   %rsi,%rsi
     5f9:	75 f0                	jne    5eb <_start_c+0x13>
     5fb:	49 8d 54 d0 10       	lea    0x10(%r8,%rdx,8),%rdx
     600:	31 c0                	xor    %eax,%eax
     602:	48 c7 44 c4 88 00 00 	movq   $0x0,-0x78(%rsp,%rax,8)
     609:	00 00 
     60b:	48 ff c0             	inc    %rax
     60e:	48 83 f8 20          	cmp    $0x20,%rax
     612:	75 ee                	jne    602 <_start_c+0x2a>
     614:	48 8b 02             	mov    (%rdx),%rax
     617:	48 85 c0             	test   %rax,%rax
     61a:	74 15                	je     631 <_start_c+0x59>
     61c:	48 83 f8 1f          	cmp    $0x1f,%rax
     620:	77 09                	ja     62b <_start_c+0x53>
     622:	48 8b 72 08          	mov    0x8(%rdx),%rsi
     626:	48 89 74 c4 88       	mov    %rsi,-0x78(%rsp,%rax,8)
     62b:	48 83 c2 10          	add    $0x10,%rdx
     62f:	eb e3                	jmp    614 <_start_c+0x3c>
     631:	48 c7 84 c4 88 00 00 	movq   $0x0,0x88(%rsp,%rax,8)
     638:	00 00 00 00 00 
     63d:	48 ff c0             	inc    %rax
     640:	48 83 f8 20          	cmp    $0x20,%rax
     644:	75 eb                	jne    631 <_start_c+0x59>
     646:	48 89 c8             	mov    %rcx,%rax
     649:	48 8b 10             	mov    (%rax),%rdx
     64c:	48 85 d2             	test   %rdx,%rdx
     64f:	74 18                	je     669 <_start_c+0x91>
     651:	48 83 fa 1f          	cmp    $0x1f,%rdx
     655:	77 0c                	ja     663 <_start_c+0x8b>
     657:	48 8b 70 08          	mov    0x8(%rax),%rsi
     65b:	48 89 b4 d4 88 00 00 	mov    %rsi,0x88(%rsp,%rdx,8)
     662:	00 
     663:	48 83 c0 10          	add    $0x10,%rax
     667:	eb e0                	jmp    649 <_start_c+0x71>
     669:	48 8b 7c 24 c0       	mov    -0x40(%rsp),%rdi
     66e:	48 85 ff             	test   %rdi,%rdi
     671:	75 2a                	jne    69d <_start_c+0xc5>
     673:	48 8b 7c 24 b0       	mov    -0x50(%rsp),%rdi
     678:	48 8b 54 24 a8       	mov    -0x58(%rsp),%rdx
     67d:	48 8b 44 24 a0       	mov    -0x60(%rsp),%rax
     682:	48 85 ff             	test   %rdi,%rdi
     685:	74 16                	je     69d <_start_c+0xc5>
     687:	48 ff cf             	dec    %rdi
     68a:	83 38 02             	cmpl   $0x2,(%rax)
     68d:	75 09                	jne    698 <_start_c+0xc0>
     68f:	48 2b 48 10          	sub    0x10(%rax),%rcx
     693:	48 89 cf             	mov    %rcx,%rdi
     696:	eb 05                	jmp    69d <_start_c+0xc5>
     698:	48 01 d0             	add    %rdx,%rax
     69b:	eb e5                	jmp    682 <_start_c+0xaa>
     69d:	48 8b 94 24 10 01 00 	mov    0x110(%rsp),%rdx
     6a4:	00 
     6a5:	48 8b 84 24 18 01 00 	mov    0x118(%rsp),%rax
     6ac:	00 
     6ad:	48 01 fa             	add    %rdi,%rdx
     6b0:	48 01 c2             	add    %rax,%rdx
     6b3:	48 89 d6             	mov    %rdx,%rsi
     6b6:	48 29 c6             	sub    %rax,%rsi
     6b9:	48 85 c0             	test   %rax,%rax
     6bc:	74 1f                	je     6dd <_start_c+0x105>
     6be:	48 8b 4e 08          	mov    0x8(%rsi),%rcx
     6c2:	81 e1 ff ff ff 7f    	and    $0x7fffffff,%ecx
     6c8:	48 83 f9 08          	cmp    $0x8,%rcx
     6cc:	75 09                	jne    6d7 <_start_c+0xff>
     6ce:	48 8b 0e             	mov    (%rsi),%rcx
     6d1:	48 01 f9             	add    %rdi,%rcx
     6d4:	48 01 39             	add    %rdi,(%rcx)
     6d7:	48 83 e8 10          	sub    $0x10,%rax
     6db:	eb d6                	jmp    6b3 <_start_c+0xdb>
     6dd:	48 8b 8c 24 c0 00 00 	mov    0xc0(%rsp),%rcx
     6e4:	00 
     6e5:	48 8b 84 24 c8 00 00 	mov    0xc8(%rsp),%rax
     6ec:	00 
     6ed:	48 01 f9             	add    %rdi,%rcx
     6f0:	48 01 c1             	add    %rax,%rcx
     6f3:	48 89 ca             	mov    %rcx,%rdx
     6f6:	48 29 c2             	sub    %rax,%rdx
     6f9:	48 85 c0             	test   %rax,%rax
     6fc:	74 24                	je     722 <_start_c+0x14a>
     6fe:	48 8b 72 08          	mov    0x8(%rdx),%rsi
     702:	81 e6 ff ff ff 7f    	and    $0x7fffffff,%esi
     708:	48 83 fe 08          	cmp    $0x8,%rsi
     70c:	75 0e                	jne    71c <_start_c+0x144>
     70e:	4c 8b 4a 10          	mov    0x10(%rdx),%r9
     712:	48 8b 32             	mov    (%rdx),%rsi
     715:	49 01 f9             	add    %rdi,%r9
     718:	4c 89 0c 3e          	mov    %r9,(%rsi,%rdi,1)
     71c:	48 83 e8 18          	sub    $0x18,%rax
     720:	eb d1                	jmp    6f3 <_start_c+0x11b>
     722:	48 8d 05 0c 00 00 00 	lea    0xc(%rip),%rax        # 735 <__dls2>
     729:	4c 89 c6             	mov    %r8,%rsi
     72c:	48 81 c4 90 01 00 00 	add    $0x190,%rsp
     733:	ff e0                	jmp    *%rax

0000000000000735 <__dls2>:
     735:	48 8d 56 08          	lea    0x8(%rsi),%rdx
     739:	4c 8d 05 ce 3d 00 00 	lea    0x3dce(%rip),%r8        # 450e <_fini>
     740:	8b 36                	mov    (%rsi),%esi
     742:	45 31 c9             	xor    %r9d,%r9d
     745:	48 8d 0d 1c fe ff ff 	lea    -0x1e4(%rip),%rcx        # 568 <_init>
     74c:	48 8d 3d 93 04 00 00 	lea    0x493(%rip),%rdi        # be6 <main>
     753:	e9 d4 06 00 00       	jmp    e2c <__libc_start_main>
     758:	0f 1f 84 00 00 00 00 	nopl   0x0(%rax,%rax,1)
     75f:	00 

0000000000000760 <deregister_tm_clones>:
     760:	48 8d 3d d1 5a 20 00 	lea    0x205ad1(%rip),%rdi        # 206238 <__TMC_END__>
     767:	48 8d 05 ca 5a 20 00 	lea    0x205aca(%rip),%rax        # 206238 <__TMC_END__>
     76e:	48 39 f8             	cmp    %rdi,%rax
     771:	74 15                	je     788 <deregister_tm_clones+0x28>
     773:	48 c7 c0 00 00 00 00 	mov    $0x0,%rax
     77a:	48 85 c0             	test   %rax,%rax
     77d:	74 09                	je     788 <deregister_tm_clones+0x28>
     77f:	ff e0                	jmp    *%rax
     781:	0f 1f 80 00 00 00 00 	nopl   0x0(%rax)
     788:	c3                   	ret    
     789:	0f 1f 80 00 00 00 00 	nopl   0x0(%rax)

0000000000000790 <register_tm_clones>:
     790:	48 8d 3d a1 5a 20 00 	lea    0x205aa1(%rip),%rdi        # 206238 <__TMC_END__>
     797:	48 8d 35 9a 5a 20 00 	lea    0x205a9a(%rip),%rsi        # 206238 <__TMC_END__>
     79e:	48 29 fe             	sub    %rdi,%rsi
     7a1:	48 89 f0             	mov    %rsi,%rax
     7a4:	48 c1 ee 3f          	shr    $0x3f,%rsi
     7a8:	48 c1 f8 03          	sar    $0x3,%rax
     7ac:	48 01 c6             	add    %rax,%rsi
     7af:	48 d1 fe             	sar    %rsi
     7b2:	74 14                	je     7c8 <register_tm_clones+0x38>
     7b4:	48 c7 c0 00 00 00 00 	mov    $0x0,%rax
     7bb:	48 85 c0             	test   %rax,%rax
     7be:	74 08                	je     7c8 <register_tm_clones+0x38>
     7c0:	ff e0                	jmp    *%rax
     7c2:	66 0f 1f 44 00 00    	nopw   0x0(%rax,%rax,1)
     7c8:	c3                   	ret    
     7c9:	0f 1f 80 00 00 00 00 	nopl   0x0(%rax)

00000000000007d0 <__do_global_dtors_aux>:
     7d0:	80 3d 69 5a 20 00 00 	cmpb   $0x0,0x205a69(%rip)        # 206240 <completed.1>
     7d7:	75 47                	jne    820 <__do_global_dtors_aux+0x50>
     7d9:	55                   	push   %rbp
     7da:	48 83 3d f6 57 20 00 	cmpq   $0x0,0x2057f6(%rip)        # 205fd8 <_DYNAMIC+0x188>
     7e1:	00 
     7e2:	48 89 e5             	mov    %rsp,%rbp
     7e5:	74 0c                	je     7f3 <__do_global_dtors_aux+0x23>
     7e7:	48 8b 3d 32 58 20 00 	mov    0x205832(%rip),%rdi        # 206020 <__dso_handle>
     7ee:	e8 8d fd ff ff       	call   580 <_init+0x18>
     7f3:	e8 68 ff ff ff       	call   760 <deregister_tm_clones>
     7f8:	48 83 3d e0 57 20 00 	cmpq   $0x0,0x2057e0(%rip)        # 205fe0 <_DYNAMIC+0x190>
     7ff:	00 
     800:	74 0c                	je     80e <__do_global_dtors_aux+0x3e>
     802:	48 8d 3d 37 4b 00 00 	lea    0x4b37(%rip),%rdi        # 5340 <__EH_FRAME_BEGIN__>
     809:	e8 7a fd ff ff       	call   588 <_init+0x20>
     80e:	c6 05 2b 5a 20 00 01 	movb   $0x1,0x205a2b(%rip)        # 206240 <completed.1>
     815:	5d                   	pop    %rbp
     816:	c3                   	ret    
     817:	66 0f 1f 84 00 00 00 	nopw   0x0(%rax,%rax,1)
     81e:	00 00 
     820:	c3                   	ret    
     821:	66 66 2e 0f 1f 84 00 	data16 cs nopw 0x0(%rax,%rax,1)
     828:	00 00 00 00 
     82c:	0f 1f 40 00          	nopl   0x0(%rax)

0000000000000830 <frame_dummy>:
     830:	48 83 3d c0 57 20 00 	cmpq   $0x0,0x2057c0(%rip)        # 205ff8 <_DYNAMIC+0x1a8>
     837:	00 
     838:	74 26                	je     860 <frame_dummy+0x30>
     83a:	55                   	push   %rbp
     83b:	48 8d 35 1e 5a 20 00 	lea    0x205a1e(%rip),%rsi        # 206260 <object.0>
     842:	48 8d 3d f7 4a 00 00 	lea    0x4af7(%rip),%rdi        # 5340 <__EH_FRAME_BEGIN__>
     849:	48 89 e5             	mov    %rsp,%rbp
     84c:	e8 3f fd ff ff       	call   590 <_init+0x28>
     851:	5d                   	pop    %rbp
     852:	e9 39 ff ff ff       	jmp    790 <register_tm_clones>
     857:	66 0f 1f 84 00 00 00 	nopw   0x0(%rax,%rax,1)
     85e:	00 00 
     860:	e9 2b ff ff ff       	jmp    790 <register_tm_clones>

0000000000000865 <func>:
     865:	55                   	push   %rbp
     866:	48 89 e5             	mov    %rsp,%rbp
     869:	89 7d fc             	mov    %edi,-0x4(%rbp)
     86c:	8b 55 fc             	mov    -0x4(%rbp),%edx
     86f:	89 d0                	mov    %edx,%eax
     871:	d1 e8                	shr    %eax
     873:	89 c1                	mov    %eax,%ecx
     875:	b8 93 24 49 92       	mov    $0x92492493,%eax
     87a:	48 0f af c1          	imul   %rcx,%rax
     87e:	48 c1 e8 20          	shr    $0x20,%rax
     882:	c1 e8 02             	shr    $0x2,%eax
     885:	6b c8 0e             	imul   $0xe,%eax,%ecx
     888:	89 d0                	mov    %edx,%eax
     88a:	29 c8                	sub    %ecx,%eax
     88c:	5d                   	pop    %rbp
     88d:	c3                   	ret    

000000000000088e <writer_process>:
     88e:	55                   	push   %rbp
     88f:	48 89 e5             	mov    %rsp,%rbp
     892:	53                   	push   %rbx
     893:	48 83 ec 28          	sub    $0x28,%rsp
     897:	89 7d dc             	mov    %edi,-0x24(%rbp)
     89a:	ba b6 01 00 00       	mov    $0x1b6,%edx
     89f:	be 42 02 00 00       	mov    $0x242,%esi
     8a4:	48 8d 05 79 3c 00 00 	lea    0x3c79(%rip),%rax        # 4524 <FILE_SIZE+0x4>
     8ab:	48 89 c7             	mov    %rax,%rdi
     8ae:	b8 00 00 00 00       	mov    $0x0,%eax
     8b3:	e8 d4 05 00 00       	call   e8c <open>
     8b8:	89 45 e8             	mov    %eax,-0x18(%rbp)
     8bb:	83 7d e8 ff          	cmpl   $0xffffffff,-0x18(%rbp)
     8bf:	75 19                	jne    8da <writer_process+0x4c>
     8c1:	48 8d 05 71 3c 00 00 	lea    0x3c71(%rip),%rax        # 4539 <FILE_SIZE+0x19>
     8c8:	48 89 c7             	mov    %rax,%rdi
     8cb:	e8 fe 0a 00 00       	call   13ce <perror>
     8d0:	bf 01 00 00 00       	mov    $0x1,%edi
     8d5:	e8 c6 fc ff ff       	call   5a0 <exit>
     8da:	b8 00 20 00 00       	mov    $0x2000,%eax
     8df:	83 e8 01             	sub    $0x1,%eax
     8e2:	48 63 c8             	movslq %eax,%rcx
     8e5:	8b 45 e8             	mov    -0x18(%rbp),%eax
     8e8:	ba 00 00 00 00       	mov    $0x0,%edx
     8ed:	48 89 ce             	mov    %rcx,%rsi
     8f0:	89 c7                	mov    %eax,%edi
     8f2:	e8 d4 28 00 00       	call   31cb <lseek>
     8f7:	48 83 f8 ff          	cmp    $0xffffffffffffffff,%rax
     8fb:	75 23                	jne    920 <writer_process+0x92>
     8fd:	48 8d 05 48 3c 00 00 	lea    0x3c48(%rip),%rax        # 454c <FILE_SIZE+0x2c>
     904:	48 89 c7             	mov    %rax,%rdi
     907:	e8 c2 0a 00 00       	call   13ce <perror>
     90c:	8b 45 e8             	mov    -0x18(%rbp),%eax
     90f:	89 c7                	mov    %eax,%edi
     911:	e8 53 28 00 00       	call   3169 <close>
     916:	bf 01 00 00 00       	mov    $0x1,%edi
     91b:	e8 80 fc ff ff       	call   5a0 <exit>
     920:	8b 45 e8             	mov    -0x18(%rbp),%eax
     923:	ba 01 00 00 00       	mov    $0x1,%edx
     928:	48 8d 0d 2a 3c 00 00 	lea    0x3c2a(%rip),%rcx        # 4559 <FILE_SIZE+0x39>
     92f:	48 89 ce             	mov    %rcx,%rsi
     932:	89 c7                	mov    %eax,%edi
     934:	e8 a7 28 00 00       	call   31e0 <write>
     939:	8b 45 e8             	mov    -0x18(%rbp),%eax
     93c:	ba 00 00 00 00       	mov    $0x0,%edx
     941:	be 00 00 00 00       	mov    $0x0,%esi
     946:	89 c7                	mov    %eax,%edi
     948:	e8 7e 28 00 00       	call   31cb <lseek>
     94d:	8b 45 e8             	mov    -0x18(%rbp),%eax
     950:	89 c7                	mov    %eax,%edi
     952:	e8 4a 28 00 00       	call   31a1 <fsync>
     957:	b8 00 20 00 00       	mov    $0x2000,%eax
     95c:	48 98                	cltq   
     95e:	8b 55 e8             	mov    -0x18(%rbp),%edx
     961:	41 b9 00 00 00 00    	mov    $0x0,%r9d
     967:	41 89 d0             	mov    %edx,%r8d
     96a:	b9 01 00 00 00       	mov    $0x1,%ecx
     96f:	ba 03 00 00 00       	mov    $0x3,%edx
     974:	48 89 c6             	mov    %rax,%rsi
     977:	bf 00 00 00 00       	mov    $0x0,%edi
     97c:	e8 d3 05 00 00       	call   f54 <__mmap>
     981:	48 89 45 e0          	mov    %rax,-0x20(%rbp)
     985:	48 83 7d e0 ff       	cmpq   $0xffffffffffffffff,-0x20(%rbp)
     98a:	75 23                	jne    9af <writer_process+0x121>
     98c:	48 8d 05 c7 3b 00 00 	lea    0x3bc7(%rip),%rax        # 455a <FILE_SIZE+0x3a>
     993:	48 89 c7             	mov    %rax,%rdi
     996:	e8 33 0a 00 00       	call   13ce <perror>
     99b:	8b 45 e8             	mov    -0x18(%rbp),%eax
     99e:	89 c7                	mov    %eax,%edi
     9a0:	e8 c4 27 00 00       	call   3169 <close>
     9a5:	bf 01 00 00 00       	mov    $0x1,%edi
     9aa:	e8 f1 fb ff ff       	call   5a0 <exit>
     9af:	c7 45 ec 00 00 00 00 	movl   $0x0,-0x14(%rbp)
     9b6:	eb 1b                	jmp    9d3 <writer_process+0x145>
     9b8:	8b 55 ec             	mov    -0x14(%rbp),%edx
     9bb:	48 8b 45 e0          	mov    -0x20(%rbp),%rax
     9bf:	48 8d 1c 02          	lea    (%rdx,%rax,1),%rbx
     9c3:	8b 45 ec             	mov    -0x14(%rbp),%eax
     9c6:	89 c7                	mov    %eax,%edi
     9c8:	e8 98 fe ff ff       	call   865 <func>
     9cd:	88 03                	mov    %al,(%rbx)
     9cf:	83 45 ec 01          	addl   $0x1,-0x14(%rbp)
     9d3:	b8 00 20 00 00       	mov    $0x2000,%eax
     9d8:	39 45 ec             	cmp    %eax,-0x14(%rbp)
     9db:	72 db                	jb     9b8 <writer_process+0x12a>
     9dd:	b8 00 20 00 00       	mov    $0x2000,%eax
     9e2:	48 63 d0             	movslq %eax,%rdx
     9e5:	48 8b 45 e0          	mov    -0x20(%rbp),%rax
     9e9:	48 89 d6             	mov    %rdx,%rsi
     9ec:	48 89 c7             	mov    %rax,%rdi
     9ef:	e8 24 06 00 00       	call   1018 <__munmap>
     9f4:	85 c0                	test   %eax,%eax
     9f6:	79 0f                	jns    a07 <writer_process+0x179>
     9f8:	48 8d 05 6e 3b 00 00 	lea    0x3b6e(%rip),%rax        # 456d <FILE_SIZE+0x4d>
     9ff:	48 89 c7             	mov    %rax,%rdi
     a02:	e8 c7 09 00 00       	call   13ce <perror>
     a07:	8b 45 e8             	mov    -0x18(%rbp),%eax
     a0a:	89 c7                	mov    %eax,%edi
     a0c:	e8 58 27 00 00       	call   3169 <close>
     a11:	90                   	nop
     a12:	48 8b 5d f8          	mov    -0x8(%rbp),%rbx
     a16:	c9                   	leave  
     a17:	c3                   	ret    

0000000000000a18 <reader_process>:
     a18:	55                   	push   %rbp
     a19:	48 89 e5             	mov    %rsp,%rbp
     a1c:	53                   	push   %rbx
     a1d:	48 81 ec b8 00 00 00 	sub    $0xb8,%rsp
     a24:	89 bd 4c ff ff ff    	mov    %edi,-0xb4(%rbp)
     a2a:	be 00 00 00 00       	mov    $0x0,%esi
     a2f:	48 8d 05 ee 3a 00 00 	lea    0x3aee(%rip),%rax        # 4524 <FILE_SIZE+0x4>
     a36:	48 89 c7             	mov    %rax,%rdi
     a39:	b8 00 00 00 00       	mov    $0x0,%eax
     a3e:	e8 49 04 00 00       	call   e8c <open>
     a43:	89 45 e8             	mov    %eax,-0x18(%rbp)
     a46:	83 7d e8 00          	cmpl   $0x0,-0x18(%rbp)
     a4a:	79 19                	jns    a65 <reader_process+0x4d>
     a4c:	48 8d 05 28 3b 00 00 	lea    0x3b28(%rip),%rax        # 457b <FILE_SIZE+0x5b>
     a53:	48 89 c7             	mov    %rax,%rdi
     a56:	e8 73 09 00 00       	call   13ce <perror>
     a5b:	bf 01 00 00 00       	mov    $0x1,%edi
     a60:	e8 3b fb ff ff       	call   5a0 <exit>
     a65:	48 8d 95 50 ff ff ff 	lea    -0xb0(%rbp),%rdx
     a6c:	8b 45 e8             	mov    -0x18(%rbp),%eax
     a6f:	48 89 d6             	mov    %rdx,%rsi
     a72:	89 c7                	mov    %eax,%edi
     a74:	e8 a2 07 00 00       	call   121b <fstat>
     a79:	83 f8 ff             	cmp    $0xffffffff,%eax
     a7c:	74 10                	je     a8e <reader_process+0x76>
     a7e:	48 8b 55 80          	mov    -0x80(%rbp),%rdx
     a82:	b8 00 20 00 00       	mov    $0x2000,%eax
     a87:	48 98                	cltq   
     a89:	48 39 c2             	cmp    %rax,%rdx
     a8c:	7d 23                	jge    ab1 <reader_process+0x99>
     a8e:	48 8d 05 fb 3a 00 00 	lea    0x3afb(%rip),%rax        # 4590 <FILE_SIZE+0x70>
     a95:	48 89 c7             	mov    %rax,%rdi
     a98:	e8 31 09 00 00       	call   13ce <perror>
     a9d:	8b 45 e8             	mov    -0x18(%rbp),%eax
     aa0:	89 c7                	mov    %eax,%edi
     aa2:	e8 c2 26 00 00       	call   3169 <close>
     aa7:	bf 01 00 00 00       	mov    $0x1,%edi
     aac:	e8 ef fa ff ff       	call   5a0 <exit>
     ab1:	b8 00 20 00 00       	mov    $0x2000,%eax
     ab6:	48 98                	cltq   
     ab8:	8b 55 e8             	mov    -0x18(%rbp),%edx
     abb:	41 b9 00 00 00 00    	mov    $0x0,%r9d
     ac1:	41 89 d0             	mov    %edx,%r8d
     ac4:	b9 01 00 00 00       	mov    $0x1,%ecx
     ac9:	ba 01 00 00 00       	mov    $0x1,%edx
     ace:	48 89 c6             	mov    %rax,%rsi
     ad1:	bf 00 00 00 00       	mov    $0x0,%edi
     ad6:	e8 79 04 00 00       	call   f54 <__mmap>
     adb:	48 89 45 e0          	mov    %rax,-0x20(%rbp)
     adf:	48 8b 45 e0          	mov    -0x20(%rbp),%rax
     ae3:	48 89 c6             	mov    %rax,%rsi
     ae6:	48 8d 05 cb 3a 00 00 	lea    0x3acb(%rip),%rax        # 45b8 <FILE_SIZE+0x98>
     aed:	48 89 c7             	mov    %rax,%rdi
     af0:	b8 00 00 00 00       	mov    $0x0,%eax
     af5:	e8 b6 09 00 00       	call   14b0 <printf>
     afa:	48 83 7d e0 00       	cmpq   $0x0,-0x20(%rbp)
     aff:	74 07                	je     b08 <reader_process+0xf0>
     b01:	48 83 7d e0 ff       	cmpq   $0xffffffffffffffff,-0x20(%rbp)
     b06:	75 23                	jne    b2b <reader_process+0x113>
     b08:	48 8d 05 b8 3a 00 00 	lea    0x3ab8(%rip),%rax        # 45c7 <FILE_SIZE+0xa7>
     b0f:	48 89 c7             	mov    %rax,%rdi
     b12:	e8 b7 08 00 00       	call   13ce <perror>
     b17:	8b 45 e8             	mov    -0x18(%rbp),%eax
     b1a:	89 c7                	mov    %eax,%edi
     b1c:	e8 48 26 00 00       	call   3169 <close>
     b21:	bf 01 00 00 00       	mov    $0x1,%edi
     b26:	e8 75 fa ff ff       	call   5a0 <exit>
     b2b:	c7 45 ec 00 00 00 00 	movl   $0x0,-0x14(%rbp)
     b32:	eb 61                	jmp    b95 <reader_process+0x17d>
     b34:	8b 55 ec             	mov    -0x14(%rbp),%edx
     b37:	48 8b 45 e0          	mov    -0x20(%rbp),%rax
     b3b:	48 01 d0             	add    %rdx,%rax
     b3e:	0f b6 18             	movzbl (%rax),%ebx
     b41:	8b 45 ec             	mov    -0x14(%rbp),%eax
     b44:	89 c7                	mov    %eax,%edi
     b46:	e8 1a fd ff ff       	call   865 <func>
     b4b:	38 c3                	cmp    %al,%bl
     b4d:	74 42                	je     b91 <reader_process+0x179>
     b4f:	8b 55 ec             	mov    -0x14(%rbp),%edx
     b52:	48 8b 45 e0          	mov    -0x20(%rbp),%rax
     b56:	48 01 d0             	add    %rdx,%rax
     b59:	0f b6 00             	movzbl (%rax),%eax
     b5c:	0f be d8             	movsbl %al,%ebx
     b5f:	8b 45 ec             	mov    -0x14(%rbp),%eax
     b62:	89 c7                	mov    %eax,%edi
     b64:	e8 fc fc ff ff       	call   865 <func>
     b69:	0f be d0             	movsbl %al,%edx
     b6c:	8b 45 ec             	mov    -0x14(%rbp),%eax
     b6f:	89 d9                	mov    %ebx,%ecx
     b71:	89 c6                	mov    %eax,%esi
     b73:	48 8d 05 66 3a 00 00 	lea    0x3a66(%rip),%rax        # 45e0 <FILE_SIZE+0xc0>
     b7a:	48 89 c7             	mov    %rax,%rdi
     b7d:	b8 00 00 00 00       	mov    $0x0,%eax
     b82:	e8 29 09 00 00       	call   14b0 <printf>
     b87:	bf 01 00 00 00       	mov    $0x1,%edi
     b8c:	e8 0f fa ff ff       	call   5a0 <exit>
     b91:	83 45 ec 01          	addl   $0x1,-0x14(%rbp)
     b95:	b8 00 20 00 00       	mov    $0x2000,%eax
     b9a:	39 45 ec             	cmp    %eax,-0x14(%rbp)
     b9d:	72 95                	jb     b34 <reader_process+0x11c>
     b9f:	8b 85 4c ff ff ff    	mov    -0xb4(%rbp),%eax
     ba5:	89 c6                	mov    %eax,%esi
     ba7:	48 8d 05 6a 3a 00 00 	lea    0x3a6a(%rip),%rax        # 4618 <FILE_SIZE+0xf8>
     bae:	48 89 c7             	mov    %rax,%rdi
     bb1:	b8 00 00 00 00       	mov    $0x0,%eax
     bb6:	e8 f5 08 00 00       	call   14b0 <printf>
     bbb:	b8 00 20 00 00       	mov    $0x2000,%eax
     bc0:	48 63 d0             	movslq %eax,%rdx
     bc3:	48 8b 45 e0          	mov    -0x20(%rbp),%rax
     bc7:	48 89 d6             	mov    %rdx,%rsi
     bca:	48 89 c7             	mov    %rax,%rdi
     bcd:	e8 46 04 00 00       	call   1018 <__munmap>
     bd2:	8b 45 e8             	mov    -0x18(%rbp),%eax
     bd5:	89 c7                	mov    %eax,%edi
     bd7:	e8 8d 25 00 00       	call   3169 <close>
     bdc:	bf 00 00 00 00       	mov    $0x0,%edi
     be1:	e8 ba f9 ff ff       	call   5a0 <exit>

0000000000000be6 <main>:
     be6:	55                   	push   %rbp
     be7:	48 89 e5             	mov    %rsp,%rbp
     bea:	48 83 ec 10          	sub    $0x10,%rsp
     bee:	bf 00 00 00 00       	mov    $0x0,%edi
     bf3:	e8 96 fc ff ff       	call   88e <writer_process>
     bf8:	e8 44 04 00 00       	call   1041 <fork>
     bfd:	89 45 fc             	mov    %eax,-0x4(%rbp)
     c00:	83 7d fc 00          	cmpl   $0x0,-0x4(%rbp)
     c04:	75 14                	jne    c1a <main+0x34>
     c06:	bf 00 00 00 00       	mov    $0x0,%edi
     c0b:	e8 08 fe ff ff       	call   a18 <reader_process>
     c10:	bf 00 00 00 00       	mov    $0x0,%edi
     c15:	e8 86 f9 ff ff       	call   5a0 <exit>
     c1a:	83 7d fc 00          	cmpl   $0x0,-0x4(%rbp)
     c1e:	79 19                	jns    c39 <main+0x53>
     c20:	48 8d 05 22 3a 00 00 	lea    0x3a22(%rip),%rax        # 4649 <FILE_SIZE+0x129>
     c27:	48 89 c7             	mov    %rax,%rdi
     c2a:	e8 9f 07 00 00       	call   13ce <perror>
     c2f:	bf 01 00 00 00       	mov    $0x1,%edi
     c34:	e8 67 f9 ff ff       	call   5a0 <exit>
     c39:	48 8d 4d f8          	lea    -0x8(%rbp),%rcx
     c3d:	8b 45 fc             	mov    -0x4(%rbp),%eax
     c40:	ba 00 00 00 00       	mov    $0x0,%edx
     c45:	48 89 ce             	mov    %rcx,%rsi
     c48:	89 c7                	mov    %eax,%edi
     c4a:	e8 51 05 00 00       	call   11a0 <waitpid>
     c4f:	b8 00 00 00 00       	mov    $0x0,%eax
     c54:	c9                   	leave  
     c55:	c3                   	ret    

0000000000000c56 <dummy>:
     c56:	c3                   	ret    

0000000000000c57 <__init_ssp>:
     c57:	c3                   	ret    

0000000000000c58 <__init_libc>:
     c58:	53                   	push   %rbx
     c59:	49 89 f8             	mov    %rdi,%r8
     c5c:	31 c0                	xor    %eax,%eax
     c5e:	b9 4c 00 00 00       	mov    $0x4c,%ecx
     c63:	48 89 f2             	mov    %rsi,%rdx
     c66:	48 81 ec 50 01 00 00 	sub    $0x150,%rsp
     c6d:	48 8d 7c 24 20       	lea    0x20(%rsp),%rdi
     c72:	f3 ab                	rep stos %eax,%es:(%rdi)
     c74:	48 8d 05 1d 5b 20 00 	lea    0x205b1d(%rip),%rax        # 206798 <__environ>
     c7b:	4c 89 00             	mov    %r8,(%rax)
     c7e:	31 c0                	xor    %eax,%eax
     c80:	49 8b 0c c0          	mov    (%r8,%rax,8),%rcx
     c84:	48 ff c0             	inc    %rax
     c87:	48 85 c9             	test   %rcx,%rcx
     c8a:	75 f4                	jne    c80 <__init_libc+0x28>
     c8c:	49 8d 04 c0          	lea    (%r8,%rax,8),%rax
     c90:	48 89 05 31 56 20 00 	mov    %rax,0x205631(%rip)        # 2062c8 <__libc+0x8>
     c97:	48 8b 18             	mov    (%rax),%rbx
     c9a:	48 85 db             	test   %rbx,%rbx
     c9d:	74 15                	je     cb4 <__init_libc+0x5c>
     c9f:	48 83 fb 25          	cmp    $0x25,%rbx
     ca3:	77 09                	ja     cae <__init_libc+0x56>
     ca5:	48 8b 48 08          	mov    0x8(%rax),%rcx
     ca9:	48 89 4c dc 20       	mov    %rcx,0x20(%rsp,%rbx,8)
     cae:	48 83 c0 10          	add    $0x10,%rax
     cb2:	eb e3                	jmp    c97 <__init_libc+0x3f>
     cb4:	48 8b 84 24 a0 00 00 	mov    0xa0(%rsp),%rax
     cbb:	00 
     cbc:	48 89 05 e5 55 20 00 	mov    %rax,0x2055e5(%rip)        # 2062a8 <__hwcap>
     cc3:	48 8b 84 24 20 01 00 	mov    0x120(%rsp),%rax
     cca:	00 
     ccb:	48 85 c0             	test   %rax,%rax
     cce:	74 07                	je     cd7 <__init_libc+0x7f>
     cd0:	48 89 05 b9 55 20 00 	mov    %rax,0x2055b9(%rip)        # 206290 <__sysinfo>
     cd7:	48 8b 44 24 50       	mov    0x50(%rsp),%rax
     cdc:	48 89 05 0d 56 20 00 	mov    %rax,0x20560d(%rip)        # 2062f0 <__libc+0x30>
     ce3:	48 85 d2             	test   %rdx,%rdx
     ce6:	75 16                	jne    cfe <__init_libc+0xa6>
     ce8:	48 8b 94 24 18 01 00 	mov    0x118(%rsp),%rdx
     cef:	00 
     cf0:	48 8d 05 0e 3a 00 00 	lea    0x3a0e(%rip),%rax        # 4705 <all_mask+0x85>
     cf7:	48 85 d2             	test   %rdx,%rdx
     cfa:	48 0f 44 d0          	cmove  %rax,%rdx
     cfe:	48 8d 05 93 55 20 00 	lea    0x205593(%rip),%rax        # 206298 <__progname_full>
     d05:	48 8d 0d 94 55 20 00 	lea    0x205594(%rip),%rcx        # 2062a0 <__progname>
     d0c:	48 89 10             	mov    %rdx,(%rax)
     d0f:	48 89 11             	mov    %rdx,(%rcx)
     d12:	8a 02                	mov    (%rdx),%al
     d14:	48 ff c2             	inc    %rdx
     d17:	84 c0                	test   %al,%al
     d19:	74 06                	je     d21 <__init_libc+0xc9>
     d1b:	3c 2f                	cmp    $0x2f,%al
     d1d:	75 f3                	jne    d12 <__init_libc+0xba>
     d1f:	eb ee                	jmp    d0f <__init_libc+0xb7>
     d21:	48 8d 7c 24 20       	lea    0x20(%rsp),%rdi
     d26:	e8 c7 25 00 00       	call   32f2 <__init_tls>
     d2b:	48 8b bc 24 e8 00 00 	mov    0xe8(%rsp),%rdi
     d32:	00 
     d33:	e8 1f ff ff ff       	call   c57 <__init_ssp>
     d38:	48 8b 84 24 80 00 00 	mov    0x80(%rsp),%rax
     d3f:	00 
     d40:	48 39 44 24 78       	cmp    %rax,0x78(%rsp)
     d45:	75 1d                	jne    d64 <__init_libc+0x10c>
     d47:	48 8b 84 24 90 00 00 	mov    0x90(%rsp),%rax
     d4e:	00 
     d4f:	48 39 84 24 88 00 00 	cmp    %rax,0x88(%rsp)
     d56:	00 
     d57:	75 0b                	jne    d64 <__init_libc+0x10c>
     d59:	48 83 bc 24 d8 00 00 	cmpq   $0x0,0xd8(%rsp)
     d60:	00 00 
     d62:	74 71                	je     dd5 <__init_libc+0x17d>
     d64:	ba 06 00 00 00       	mov    $0x6,%edx
     d69:	31 c0                	xor    %eax,%eax
     d6b:	48 8d 7c 24 08       	lea    0x8(%rsp),%rdi
     d70:	be 03 00 00 00       	mov    $0x3,%esi
     d75:	48 89 d1             	mov    %rdx,%rcx
     d78:	4c 8d 44 24 08       	lea    0x8(%rsp),%r8
     d7d:	f3 ab                	rep stos %eax,%es:(%rdi)
     d7f:	c7 44 24 10 01 00 00 	movl   $0x1,0x10(%rsp)
     d86:	00 
     d87:	b8 07 00 00 00       	mov    $0x7,%eax
     d8c:	4c 89 c7             	mov    %r8,%rdi
     d8f:	c7 44 24 18 02 00 00 	movl   $0x2,0x18(%rsp)
     d96:	00 
     d97:	48 89 ca             	mov    %rcx,%rdx
     d9a:	0f 05                	syscall 
     d9c:	85 c0                	test   %eax,%eax
     d9e:	79 01                	jns    da1 <__init_libc+0x149>
     da0:	f4                   	hlt    
     da1:	ba 02 00 00 00       	mov    $0x2,%edx
     da6:	48 8d 3d b3 38 00 00 	lea    0x38b3(%rip),%rdi        # 4660 <FILE_SIZE+0x140>
     dad:	be 02 80 00 00       	mov    $0x8002,%esi
     db2:	41 f6 44 d8 06 20    	testb  $0x20,0x6(%r8,%rbx,8)
     db8:	74 0b                	je     dc5 <__init_libc+0x16d>
     dba:	48 89 d0             	mov    %rdx,%rax
     dbd:	0f 05                	syscall 
     dbf:	48 85 c0             	test   %rax,%rax
     dc2:	79 01                	jns    dc5 <__init_libc+0x16d>
     dc4:	f4                   	hlt    
     dc5:	48 ff c3             	inc    %rbx
     dc8:	48 83 fb 03          	cmp    $0x3,%rbx
     dcc:	75 e4                	jne    db2 <__init_libc+0x15a>
     dce:	c6 05 ed 54 20 00 01 	movb   $0x1,0x2054ed(%rip)        # 2062c2 <__libc+0x2>
     dd5:	48 81 c4 50 01 00 00 	add    $0x150,%rsp
     ddc:	5b                   	pop    %rbx
     ddd:	c3                   	ret    

0000000000000dde <__libc_start_init>:
     dde:	53                   	push   %rbx
     ddf:	e8 84 f7 ff ff       	call   568 <_init>
     de4:	48 8d 1d e5 4f 20 00 	lea    0x204fe5(%rip),%rbx        # 205dd0 <__frame_dummy_init_array_entry>
     deb:	48 3b 1d fe 51 20 00 	cmp    0x2051fe(%rip),%rbx        # 205ff0 <_DYNAMIC+0x1a0>
     df2:	73 08                	jae    dfc <__libc_start_init+0x1e>
     df4:	ff 13                	call   *(%rbx)
     df6:	48 83 c3 08          	add    $0x8,%rbx
     dfa:	eb ef                	jmp    deb <__libc_start_init+0xd>
     dfc:	5b                   	pop    %rbx
     dfd:	c3                   	ret    

0000000000000dfe <libc_start_main_stage2>:
     dfe:	41 55                	push   %r13
     e00:	41 54                	push   %r12
     e02:	49 89 d4             	mov    %rdx,%r12
     e05:	55                   	push   %rbp
     e06:	53                   	push   %rbx
     e07:	48 89 fb             	mov    %rdi,%rbx
     e0a:	50                   	push   %rax
     e0b:	48 63 c6             	movslq %esi,%rax
     e0e:	48 89 c5             	mov    %rax,%rbp
     e11:	4c 8d 6c c2 08       	lea    0x8(%rdx,%rax,8),%r13
     e16:	e8 c3 ff ff ff       	call   dde <__libc_start_init>
     e1b:	89 ef                	mov    %ebp,%edi
     e1d:	4c 89 ea             	mov    %r13,%rdx
     e20:	4c 89 e6             	mov    %r12,%rsi
     e23:	ff d3                	call   *%rbx
     e25:	89 c7                	mov    %eax,%edi
     e27:	e8 74 f7 ff ff       	call   5a0 <exit>

0000000000000e2c <__libc_start_main>:
     e2c:	41 55                	push   %r13
     e2e:	48 63 c6             	movslq %esi,%rax
     e31:	49 89 fd             	mov    %rdi,%r13
     e34:	55                   	push   %rbp
     e35:	48 8d 7c c2 08       	lea    0x8(%rdx,%rax,8),%rdi
     e3a:	48 89 c5             	mov    %rax,%rbp
     e3d:	48 83 ec 18          	sub    $0x18,%rsp
     e41:	48 8b 32             	mov    (%rdx),%rsi
     e44:	48 89 54 24 08       	mov    %rdx,0x8(%rsp)
     e49:	e8 0a fe ff ff       	call   c58 <__init_libc>
     e4e:	48 8d 05 a9 ff ff ff 	lea    -0x57(%rip),%rax        # dfe <libc_start_main_stage2>
     e55:	89 ee                	mov    %ebp,%esi
     e57:	4c 89 ef             	mov    %r13,%rdi
     e5a:	48 8b 54 24 08       	mov    0x8(%rsp),%rdx
     e5f:	48 83 c4 18          	add    $0x18,%rsp
     e63:	5d                   	pop    %rbp
     e64:	41 5d                	pop    %r13
     e66:	ff e0                	jmp    *%rax

0000000000000e68 <__funcs_on_exit>:
     e68:	c3                   	ret    

0000000000000e69 <__libc_exit_fini>:
     e69:	53                   	push   %rbx
     e6a:	48 8d 1d 6f 4f 20 00 	lea    0x204f6f(%rip),%rbx        # 205de0 <atfork_locks>
     e71:	48 3b 1d 70 51 20 00 	cmp    0x205170(%rip),%rbx        # 205fe8 <_DYNAMIC+0x198>
     e78:	76 0a                	jbe    e84 <__libc_exit_fini+0x1b>
     e7a:	48 83 eb 08          	sub    $0x8,%rbx
     e7e:	31 c0                	xor    %eax,%eax
     e80:	ff 13                	call   *(%rbx)
     e82:	eb ed                	jmp    e71 <__libc_exit_fini+0x8>
     e84:	31 c0                	xor    %eax,%eax
     e86:	5b                   	pop    %rbx
     e87:	e9 82 36 00 00       	jmp    450e <_fini>

0000000000000e8c <open>:
     e8c:	53                   	push   %rbx
     e8d:	89 f3                	mov    %esi,%ebx
     e8f:	49 89 fa             	mov    %rdi,%r10
     e92:	48 83 ec 50          	sub    $0x50,%rsp
     e96:	40 80 e6 40          	and    $0x40,%sil
     e9a:	48 89 54 24 30       	mov    %rdx,0x30(%rsp)
     e9f:	75 10                	jne    eb1 <open+0x25>
     ea1:	89 d8                	mov    %ebx,%eax
     ea3:	31 c9                	xor    %ecx,%ecx
     ea5:	25 00 00 41 00       	and    $0x410000,%eax
     eaa:	3d 00 00 41 00       	cmp    $0x410000,%eax
     eaf:	75 20                	jne    ed1 <open+0x45>
     eb1:	48 8d 44 24 60       	lea    0x60(%rsp),%rax
     eb6:	c7 44 24 08 10 00 00 	movl   $0x10,0x8(%rsp)
     ebd:	00 
     ebe:	8b 4c 24 30          	mov    0x30(%rsp),%ecx
     ec2:	48 89 44 24 10       	mov    %rax,0x10(%rsp)
     ec7:	48 8d 44 24 20       	lea    0x20(%rsp),%rax
     ecc:	48 89 44 24 18       	mov    %rax,0x18(%rsp)
     ed1:	89 da                	mov    %ebx,%edx
     ed3:	50                   	push   %rax
     ed4:	45 31 c9             	xor    %r9d,%r9d
     ed7:	45 31 c0             	xor    %r8d,%r8d
     eda:	6a 00                	push   $0x0
     edc:	80 ce 80             	or     $0x80,%dh
     edf:	bf 02 00 00 00       	mov    $0x2,%edi
     ee4:	4c 89 d6             	mov    %r10,%rsi
     ee7:	48 63 d2             	movslq %edx,%rdx
     eea:	e8 18 21 00 00       	call   3007 <__syscall_cp>
     eef:	5a                   	pop    %rdx
     ef0:	59                   	pop    %rcx
     ef1:	85 c0                	test   %eax,%eax
     ef3:	48 63 f8             	movslq %eax,%rdi
     ef6:	78 17                	js     f0f <open+0x83>
     ef8:	0f ba e3 13          	bt     $0x13,%ebx
     efc:	73 11                	jae    f0f <open+0x83>
     efe:	b8 48 00 00 00       	mov    $0x48,%eax
     f03:	be 02 00 00 00       	mov    $0x2,%esi
     f08:	ba 01 00 00 00       	mov    $0x1,%edx
     f0d:	0f 05                	syscall 
     f0f:	e8 0c 00 00 00       	call   f20 <__syscall_ret>
     f14:	48 83 c4 50          	add    $0x50,%rsp
     f18:	5b                   	pop    %rbx
     f19:	c3                   	ret    
     f1a:	66 0f 1f 44 00 00    	nopw   0x0(%rax,%rax,1)

0000000000000f20 <__syscall_ret>:
     f20:	48 81 ff 00 f0 ff ff 	cmp    $0xfffffffffffff000,%rdi
     f27:	77 07                	ja     f30 <__syscall_ret+0x10>
     f29:	48 89 f8             	mov    %rdi,%rax
     f2c:	c3                   	ret    
     f2d:	0f 1f 00             	nopl   (%rax)
     f30:	48 83 ec 18          	sub    $0x18,%rsp
     f34:	48 89 7c 24 08       	mov    %rdi,0x8(%rsp)
     f39:	e8 30 25 00 00       	call   346e <__errno_location>
     f3e:	48 8b 7c 24 08       	mov    0x8(%rsp),%rdi
     f43:	f7 df                	neg    %edi
     f45:	89 38                	mov    %edi,(%rax)
     f47:	48 c7 c0 ff ff ff ff 	mov    $0xffffffffffffffff,%rax
     f4e:	48 83 c4 18          	add    $0x18,%rsp
     f52:	c3                   	ret    

0000000000000f53 <__vm_wait>:
     f53:	c3                   	ret    

0000000000000f54 <__mmap>:
     f54:	41 56                	push   %r14
     f56:	41 55                	push   %r13
     f58:	41 54                	push   %r12
     f5a:	55                   	push   %rbp
     f5b:	53                   	push   %rbx
     f5c:	48 83 ec 10          	sub    $0x10,%rsp
     f60:	41 f7 c1 ff 0f 00 00 	test   $0xfff,%r9d
     f67:	74 10                	je     f79 <__mmap+0x25>
     f69:	e8 00 25 00 00       	call   346e <__errno_location>
     f6e:	c7 00 16 00 00 00    	movl   $0x16,(%rax)
     f74:	e9 8d 00 00 00       	jmp    1006 <__mmap+0xb2>
     f79:	48 b8 fe ff ff ff ff 	movabs $0x7ffffffffffffffe,%rax
     f80:	ff ff 7f 
     f83:	49 89 f5             	mov    %rsi,%r13
     f86:	48 39 c6             	cmp    %rax,%rsi
     f89:	76 0d                	jbe    f98 <__mmap+0x44>
     f8b:	e8 de 24 00 00       	call   346e <__errno_location>
     f90:	c7 00 0c 00 00 00    	movl   $0xc,(%rax)
     f96:	eb 6e                	jmp    1006 <__mmap+0xb2>
     f98:	49 89 fc             	mov    %rdi,%r12
     f9b:	89 d5                	mov    %edx,%ebp
     f9d:	89 cb                	mov    %ecx,%ebx
     f9f:	45 89 c6             	mov    %r8d,%r14d
     fa2:	f6 c1 10             	test   $0x10,%cl
     fa5:	74 0f                	je     fb6 <__mmap+0x62>
     fa7:	4c 89 4c 24 08       	mov    %r9,0x8(%rsp)
     fac:	e8 a2 ff ff ff       	call   f53 <__vm_wait>
     fb1:	4c 8b 4c 24 08       	mov    0x8(%rsp),%r9
     fb6:	48 63 d5             	movslq %ebp,%rdx
     fb9:	4c 63 d3             	movslq %ebx,%r10
     fbc:	4d 63 c6             	movslq %r14d,%r8
     fbf:	b8 09 00 00 00       	mov    $0x9,%eax
     fc4:	4c 89 e7             	mov    %r12,%rdi
     fc7:	4c 89 ee             	mov    %r13,%rsi
     fca:	0f 05                	syscall 
     fcc:	48 89 c7             	mov    %rax,%rdi
     fcf:	48 83 f8 ff          	cmp    $0xffffffffffffffff,%rax
     fd3:	75 20                	jne    ff5 <__mmap+0xa1>
     fd5:	4d 85 e4             	test   %r12,%r12
     fd8:	75 1b                	jne    ff5 <__mmap+0xa1>
     fda:	83 e3 30             	and    $0x30,%ebx
     fdd:	49 c7 c0 ff ff ff ff 	mov    $0xffffffffffffffff,%r8
     fe4:	48 c7 c0 f4 ff ff ff 	mov    $0xfffffffffffffff4,%rax
     feb:	83 fb 20             	cmp    $0x20,%ebx
     fee:	49 0f 45 c0          	cmovne %r8,%rax
     ff2:	48 89 c7             	mov    %rax,%rdi
     ff5:	48 83 c4 10          	add    $0x10,%rsp
     ff9:	5b                   	pop    %rbx
     ffa:	5d                   	pop    %rbp
     ffb:	41 5c                	pop    %r12
     ffd:	41 5d                	pop    %r13
     fff:	41 5e                	pop    %r14
    1001:	e9 1a ff ff ff       	jmp    f20 <__syscall_ret>
    1006:	48 83 c4 10          	add    $0x10,%rsp
    100a:	48 83 c8 ff          	or     $0xffffffffffffffff,%rax
    100e:	5b                   	pop    %rbx
    100f:	5d                   	pop    %rbp
    1010:	41 5c                	pop    %r12
    1012:	41 5d                	pop    %r13
    1014:	41 5e                	pop    %r14
    1016:	c3                   	ret    

0000000000001017 <dummy>:
    1017:	c3                   	ret    

0000000000001018 <__munmap>:
    1018:	55                   	push   %rbp
    1019:	48 89 f5             	mov    %rsi,%rbp
    101c:	53                   	push   %rbx
    101d:	48 89 fb             	mov    %rdi,%rbx
    1020:	50                   	push   %rax
    1021:	e8 2d ff ff ff       	call   f53 <__vm_wait>
    1026:	b8 0b 00 00 00       	mov    $0xb,%eax
    102b:	48 89 df             	mov    %rbx,%rdi
    102e:	48 89 ee             	mov    %rbp,%rsi
    1031:	0f 05                	syscall 
    1033:	48 89 c7             	mov    %rax,%rdi
    1036:	e8 e5 fe ff ff       	call   f20 <__syscall_ret>
    103b:	5a                   	pop    %rdx
    103c:	5b                   	pop    %rbx
    103d:	5d                   	pop    %rbp
    103e:	c3                   	ret    

000000000000103f <__fork_handler>:
    103f:	c3                   	ret    

0000000000001040 <__tl_lock>:
    1040:	c3                   	ret    

0000000000001041 <fork>:
    1041:	41 57                	push   %r15
    1043:	83 cf ff             	or     $0xffffffff,%edi
    1046:	41 56                	push   %r14
    1048:	41 55                	push   %r13
    104a:	41 54                	push   %r12
    104c:	55                   	push   %rbp
    104d:	53                   	push   %rbx
    104e:	48 81 ec 98 00 00 00 	sub    $0x98,%rsp
    1055:	e8 e5 ff ff ff       	call   103f <__fork_handler>
    105a:	48 8d 6c 24 10       	lea    0x10(%rsp),%rbp
    105f:	48 89 ef             	mov    %rbp,%rdi
    1062:	e8 82 01 00 00       	call   11e9 <__block_app_sigs>
    1067:	44 8a 3d 55 52 20 00 	mov    0x205255(%rip),%r15b        # 2062c3 <__libc+0x3>
    106e:	45 84 ff             	test   %r15b,%r15b
    1071:	7e 3e                	jle    10b1 <fork+0x70>
    1073:	83 cf ff             	or     $0xffffffff,%edi
    1076:	48 8d 1d 63 4d 20 00 	lea    0x204d63(%rip),%rbx        # 205de0 <atfork_locks>
    107d:	e8 bd ff ff ff       	call   103f <__fork_handler>
    1082:	4c 8d 63 58          	lea    0x58(%rbx),%r12
    1086:	e8 81 1f 00 00       	call   300c <__inhibit_ptc>
    108b:	48 8b 03             	mov    (%rbx),%rax
    108e:	48 8b 38             	mov    (%rax),%rdi
    1091:	48 85 ff             	test   %rdi,%rdi
    1094:	74 05                	je     109b <fork+0x5a>
    1096:	e8 66 1e 00 00       	call   2f01 <__lock>
    109b:	48 83 c3 08          	add    $0x8,%rbx
    109f:	49 39 dc             	cmp    %rbx,%r12
    10a2:	75 e7                	jne    108b <fork+0x4a>
    10a4:	83 cf ff             	or     $0xffffffff,%edi
    10a7:	e8 93 ff ff ff       	call   103f <__fork_handler>
    10ac:	e8 8f ff ff ff       	call   1040 <__tl_lock>
    10b1:	64 48 8b 14 25 00 00 	mov    %fs:0x0,%rdx
    10b8:	00 00 
    10ba:	48 89 54 24 08       	mov    %rdx,0x8(%rsp)
    10bf:	4c 8b 6a 18          	mov    0x18(%rdx),%r13
    10c3:	e8 cf 25 00 00       	call   3697 <_Fork>
    10c8:	41 89 c4             	mov    %eax,%r12d
    10cb:	e8 9e 23 00 00       	call   346e <__errno_location>
    10d0:	44 8b 30             	mov    (%rax),%r14d
    10d3:	48 89 c3             	mov    %rax,%rbx
    10d6:	45 84 ff             	test   %r15b,%r15b
    10d9:	0f 8e 8e 00 00 00    	jle    116d <fork+0x12c>
    10df:	45 85 e4             	test   %r12d,%r12d
    10e2:	48 8b 54 24 08       	mov    0x8(%rsp),%rdx
    10e7:	75 2c                	jne    1115 <fork+0xd4>
    10e9:	49 39 d5             	cmp    %rdx,%r13
    10ec:	74 0e                	je     10fc <fork+0xbb>
    10ee:	41 c7 45 30 ff ff ff 	movl   $0xffffffff,0x30(%r13)
    10f5:	ff 
    10f6:	4d 8b 6d 18          	mov    0x18(%r13),%r13
    10fa:	eb ed                	jmp    10e9 <fork+0xa8>
    10fc:	48 8b 05 6d 35 00 00 	mov    0x356d(%rip),%rax        # 4670 <__at_quick_exit_lockptr>
    1103:	48 85 c0             	test   %rax,%rax
    1106:	74 0d                	je     1115 <fork+0xd4>
    1108:	c7 00 00 00 00 00    	movl   $0x0,(%rax)
    110e:	c7 40 04 00 00 00 00 	movl   $0x0,0x4(%rax)
    1115:	e8 26 ff ff ff       	call   1040 <__tl_lock>
    111a:	45 31 ed             	xor    %r13d,%r13d
    111d:	45 85 e4             	test   %r12d,%r12d
    1120:	4c 8d 3d b9 4c 20 00 	lea    0x204cb9(%rip),%r15        # 205de0 <atfork_locks>
    1127:	41 0f 94 c5          	sete   %r13b
    112b:	44 89 ef             	mov    %r13d,%edi
    112e:	e8 0c ff ff ff       	call   103f <__fork_handler>
    1133:	49 8b 17             	mov    (%r15),%rdx
    1136:	48 8b 3a             	mov    (%rdx),%rdi
    1139:	48 85 ff             	test   %rdi,%rdi
    113c:	74 12                	je     1150 <fork+0x10f>
    113e:	45 85 e4             	test   %r12d,%r12d
    1141:	74 07                	je     114a <fork+0x109>
    1143:	e8 6b 1e 00 00       	call   2fb3 <__unlock>
    1148:	eb 06                	jmp    1150 <fork+0x10f>
    114a:	c7 07 00 00 00 00    	movl   $0x0,(%rdi)
    1150:	49 83 c7 08          	add    $0x8,%r15
    1154:	48 8d 05 dd 4c 20 00 	lea    0x204cdd(%rip),%rax        # 205e38 <stderr>
    115b:	4c 39 f8             	cmp    %r15,%rax
    115e:	75 d3                	jne    1133 <fork+0xf2>
    1160:	e8 bf 1e 00 00       	call   3024 <__release_ptc>
    1165:	44 89 ef             	mov    %r13d,%edi
    1168:	e8 d2 fe ff ff       	call   103f <__fork_handler>
    116d:	48 89 ef             	mov    %rbp,%rdi
    1170:	e8 8e 00 00 00       	call   1203 <__restore_sigs>
    1175:	31 ff                	xor    %edi,%edi
    1177:	45 85 e4             	test   %r12d,%r12d
    117a:	40 0f 94 c7          	sete   %dil
    117e:	e8 bc fe ff ff       	call   103f <__fork_handler>
    1183:	45 85 e4             	test   %r12d,%r12d
    1186:	79 03                	jns    118b <fork+0x14a>
    1188:	44 89 33             	mov    %r14d,(%rbx)
    118b:	48 81 c4 98 00 00 00 	add    $0x98,%rsp
    1192:	44 89 e0             	mov    %r12d,%eax
    1195:	5b                   	pop    %rbx
    1196:	5d                   	pop    %rbp
    1197:	41 5c                	pop    %r12
    1199:	41 5d                	pop    %r13
    119b:	41 5e                	pop    %r14
    119d:	41 5f                	pop    %r15
    119f:	c3                   	ret    

00000000000011a0 <waitpid>:
    11a0:	48 83 ec 10          	sub    $0x10,%rsp
    11a4:	49 89 f2             	mov    %rsi,%r10
    11a7:	48 63 ca             	movslq %edx,%rcx
    11aa:	48 63 f7             	movslq %edi,%rsi
    11ad:	6a 00                	push   $0x0
    11af:	45 31 c9             	xor    %r9d,%r9d
    11b2:	45 31 c0             	xor    %r8d,%r8d
    11b5:	4c 89 d2             	mov    %r10,%rdx
    11b8:	bf 3d 00 00 00       	mov    $0x3d,%edi
    11bd:	e8 45 1e 00 00       	call   3007 <__syscall_cp>
    11c2:	48 89 c7             	mov    %rax,%rdi
    11c5:	e8 56 fd ff ff       	call   f20 <__syscall_ret>
    11ca:	48 83 c4 18          	add    $0x18,%rsp
    11ce:	c3                   	ret    

00000000000011cf <__block_all_sigs>:
    11cf:	48 89 fa             	mov    %rdi,%rdx
    11d2:	41 ba 08 00 00 00    	mov    $0x8,%r10d
    11d8:	48 8d 35 a1 34 00 00 	lea    0x34a1(%rip),%rsi        # 4680 <all_mask>
    11df:	31 ff                	xor    %edi,%edi
    11e1:	b8 0e 00 00 00       	mov    $0xe,%eax
    11e6:	0f 05                	syscall 
    11e8:	c3                   	ret    

00000000000011e9 <__block_app_sigs>:
    11e9:	48 89 fa             	mov    %rdi,%rdx
    11ec:	41 ba 08 00 00 00    	mov    $0x8,%r10d
    11f2:	48 8d 35 7f 34 00 00 	lea    0x347f(%rip),%rsi        # 4678 <app_mask>
    11f9:	31 ff                	xor    %edi,%edi
    11fb:	b8 0e 00 00 00       	mov    $0xe,%eax
    1200:	0f 05                	syscall 
    1202:	c3                   	ret    

0000000000001203 <__restore_sigs>:
    1203:	48 89 fe             	mov    %rdi,%rsi
    1206:	41 ba 08 00 00 00    	mov    $0x8,%r10d
    120c:	b8 0e 00 00 00       	mov    $0xe,%eax
    1211:	31 d2                	xor    %edx,%edx
    1213:	bf 02 00 00 00       	mov    $0x2,%edi
    1218:	0f 05                	syscall 
    121a:	c3                   	ret    

000000000000121b <fstat>:
    121b:	85 ff                	test   %edi,%edi
    121d:	78 14                	js     1233 <fstat+0x18>
    121f:	48 89 f2             	mov    %rsi,%rdx
    1222:	b9 00 10 00 00       	mov    $0x1000,%ecx
    1227:	48 8d 35 d7 34 00 00 	lea    0x34d7(%rip),%rsi        # 4705 <all_mask+0x85>
    122e:	e9 0f 00 00 00       	jmp    1242 <fstatat>
    1233:	50                   	push   %rax
    1234:	48 c7 c7 f7 ff ff ff 	mov    $0xfffffffffffffff7,%rdi
    123b:	e8 e0 fc ff ff       	call   f20 <__syscall_ret>
    1240:	5a                   	pop    %rdx
    1241:	c3                   	ret    

0000000000001242 <fstatat>:
    1242:	55                   	push   %rbp
    1243:	41 89 f9             	mov    %edi,%r9d
    1246:	48 89 f5             	mov    %rsi,%rbp
    1249:	53                   	push   %rbx
    124a:	48 89 d3             	mov    %rdx,%rbx
    124d:	48 81 ec c8 00 00 00 	sub    $0xc8,%rsp
    1254:	48 8d 54 24 30       	lea    0x30(%rsp),%rdx
    1259:	81 f9 00 10 00 00    	cmp    $0x1000,%ecx
    125f:	75 73                	jne    12d4 <fstatat+0x92>
    1261:	85 ff                	test   %edi,%edi
    1263:	78 6f                	js     12d4 <fstatat+0x92>
    1265:	80 3e 00             	cmpb   $0x0,(%rsi)
    1268:	75 70                	jne    12da <fstatat+0x98>
    126a:	48 63 ff             	movslq %edi,%rdi
    126d:	b8 05 00 00 00       	mov    $0x5,%eax
    1272:	48 89 d6             	mov    %rdx,%rsi
    1275:	0f 05                	syscall 
    1277:	41 89 c0             	mov    %eax,%r8d
    127a:	83 f8 f7             	cmp    $0xfffffff7,%eax
    127d:	0f 85 90 00 00 00    	jne    1313 <fstatat+0xd1>
    1283:	b8 48 00 00 00       	mov    $0x48,%eax
    1288:	be 01 00 00 00       	mov    $0x1,%esi
    128d:	0f 05                	syscall 
    128f:	48 85 c0             	test   %rax,%rax
    1292:	0f 88 24 01 00 00    	js     13bc <fstatat+0x17a>
    1298:	41 ba 00 10 00 00    	mov    $0x1000,%r10d
    129e:	b8 06 01 00 00       	mov    $0x106,%eax
    12a3:	48 89 ee             	mov    %rbp,%rsi
    12a6:	0f 05                	syscall 
    12a8:	41 89 c0             	mov    %eax,%r8d
    12ab:	83 f8 ea             	cmp    $0xffffffea,%eax
    12ae:	75 63                	jne    1313 <fstatat+0xd1>
    12b0:	48 8d 6c 24 15       	lea    0x15(%rsp),%rbp
    12b5:	44 89 ce             	mov    %r9d,%esi
    12b8:	48 89 54 24 08       	mov    %rdx,0x8(%rsp)
    12bd:	48 89 ef             	mov    %rbp,%rdi
    12c0:	e8 1b 22 00 00       	call   34e0 <__procfdname>
    12c5:	48 8b 54 24 08       	mov    0x8(%rsp),%rdx
    12ca:	b8 04 00 00 00       	mov    $0x4,%eax
    12cf:	48 89 ef             	mov    %rbp,%rdi
    12d2:	eb 25                	jmp    12f9 <fstatat+0xb7>
    12d4:	41 83 f9 9c          	cmp    $0xffffff9c,%r9d
    12d8:	74 06                	je     12e0 <fstatat+0x9e>
    12da:	80 7d 00 2f          	cmpb   $0x2f,0x0(%rbp)
    12de:	75 20                	jne    1300 <fstatat+0xbe>
    12e0:	b8 06 00 00 00       	mov    $0x6,%eax
    12e5:	81 f9 00 01 00 00    	cmp    $0x100,%ecx
    12eb:	74 09                	je     12f6 <fstatat+0xb4>
    12ed:	85 c9                	test   %ecx,%ecx
    12ef:	75 0f                	jne    1300 <fstatat+0xbe>
    12f1:	b8 04 00 00 00       	mov    $0x4,%eax
    12f6:	48 89 ef             	mov    %rbp,%rdi
    12f9:	48 89 d6             	mov    %rdx,%rsi
    12fc:	0f 05                	syscall 
    12fe:	eb 10                	jmp    1310 <fstatat+0xce>
    1300:	49 63 f9             	movslq %r9d,%rdi
    1303:	4c 63 d1             	movslq %ecx,%r10
    1306:	b8 06 01 00 00       	mov    $0x106,%eax
    130b:	48 89 ee             	mov    %rbp,%rsi
    130e:	0f 05                	syscall 
    1310:	41 89 c0             	mov    %eax,%r8d
    1313:	45 85 c0             	test   %r8d,%r8d
    1316:	0f 85 a0 00 00 00    	jne    13bc <fstatat+0x17a>
    131c:	44 89 c0             	mov    %r8d,%eax
    131f:	b9 24 00 00 00       	mov    $0x24,%ecx
    1324:	48 89 df             	mov    %rbx,%rdi
    1327:	f3 ab                	rep stos %eax,%es:(%rdi)
    1329:	48 8b 44 24 30       	mov    0x30(%rsp),%rax
    132e:	48 89 03             	mov    %rax,(%rbx)
    1331:	48 8b 44 24 38       	mov    0x38(%rsp),%rax
    1336:	48 89 43 08          	mov    %rax,0x8(%rbx)
    133a:	48 8b 44 24 40       	mov    0x40(%rsp),%rax
    133f:	48 89 43 10          	mov    %rax,0x10(%rbx)
    1343:	48 8b 44 24 48       	mov    0x48(%rsp),%rax
    1348:	48 89 43 18          	mov    %rax,0x18(%rbx)
    134c:	8b 44 24 50          	mov    0x50(%rsp),%eax
    1350:	89 43 20             	mov    %eax,0x20(%rbx)
    1353:	48 8b 44 24 58       	mov    0x58(%rsp),%rax
    1358:	48 89 43 28          	mov    %rax,0x28(%rbx)
    135c:	48 8b 44 24 60       	mov    0x60(%rsp),%rax
    1361:	48 89 43 30          	mov    %rax,0x30(%rbx)
    1365:	48 8b 44 24 68       	mov    0x68(%rsp),%rax
    136a:	48 89 43 38          	mov    %rax,0x38(%rbx)
    136e:	48 8b 44 24 70       	mov    0x70(%rsp),%rax
    1373:	48 89 43 40          	mov    %rax,0x40(%rbx)
    1377:	48 8b 44 24 78       	mov    0x78(%rsp),%rax
    137c:	48 89 43 48          	mov    %rax,0x48(%rbx)
    1380:	48 8b 84 24 80 00 00 	mov    0x80(%rsp),%rax
    1387:	00 
    1388:	48 89 43 50          	mov    %rax,0x50(%rbx)
    138c:	48 8b 84 24 88 00 00 	mov    0x88(%rsp),%rax
    1393:	00 
    1394:	48 89 43 58          	mov    %rax,0x58(%rbx)
    1398:	48 8b 84 24 90 00 00 	mov    0x90(%rsp),%rax
    139f:	00 
    13a0:	48 89 43 60          	mov    %rax,0x60(%rbx)
    13a4:	48 8b 84 24 98 00 00 	mov    0x98(%rsp),%rax
    13ab:	00 
    13ac:	48 89 43 68          	mov    %rax,0x68(%rbx)
    13b0:	48 8b 84 24 a0 00 00 	mov    0xa0(%rsp),%rax
    13b7:	00 
    13b8:	48 89 43 70          	mov    %rax,0x70(%rbx)
    13bc:	49 63 f8             	movslq %r8d,%rdi
    13bf:	e8 5c fb ff ff       	call   f20 <__syscall_ret>
    13c4:	48 81 c4 c8 00 00 00 	add    $0xc8,%rsp
    13cb:	5b                   	pop    %rbx
    13cc:	5d                   	pop    %rbp
    13cd:	c3                   	ret    

00000000000013ce <perror>:
    13ce:	41 57                	push   %r15
    13d0:	41 56                	push   %r14
    13d2:	41 55                	push   %r13
    13d4:	41 54                	push   %r12
    13d6:	49 89 fc             	mov    %rdi,%r12
    13d9:	55                   	push   %rbp
    13da:	48 8d 2d 5f 4c 20 00 	lea    0x204c5f(%rip),%rbp        # 206040 <__stderr_FILE>
    13e1:	53                   	push   %rbx
    13e2:	31 db                	xor    %ebx,%ebx
    13e4:	51                   	push   %rcx
    13e5:	e8 84 20 00 00       	call   346e <__errno_location>
    13ea:	8b 38                	mov    (%rax),%edi
    13ec:	e8 b6 20 00 00       	call   34a7 <strerror>
    13f1:	49 89 c5             	mov    %rax,%r13
    13f4:	8b 05 d2 4c 20 00    	mov    0x204cd2(%rip),%eax        # 2060cc <__stderr_FILE+0x8c>
    13fa:	85 c0                	test   %eax,%eax
    13fc:	78 0a                	js     1408 <perror+0x3a>
    13fe:	48 89 ef             	mov    %rbp,%rdi
    1401:	e8 4d 23 00 00       	call   3753 <__lockfile>
    1406:	89 c3                	mov    %eax,%ebx
    1408:	4c 8b 35 11 4d 20 00 	mov    0x204d11(%rip),%r14        # 206120 <__stderr_FILE+0xe0>
    140f:	44 8b 3d b2 4c 20 00 	mov    0x204cb2(%rip),%r15d        # 2060c8 <__stderr_FILE+0x88>
    1416:	4d 85 e4             	test   %r12,%r12
    1419:	74 3c                	je     1457 <perror+0x89>
    141b:	41 80 3c 24 00       	cmpb   $0x0,(%r12)
    1420:	74 35                	je     1457 <perror+0x89>
    1422:	4c 89 e7             	mov    %r12,%rdi
    1425:	e8 66 19 00 00       	call   2d90 <strlen>
    142a:	48 89 e9             	mov    %rbp,%rcx
    142d:	ba 01 00 00 00       	mov    $0x1,%edx
    1432:	4c 89 e7             	mov    %r12,%rdi
    1435:	48 89 c6             	mov    %rax,%rsi
    1438:	e8 46 27 00 00       	call   3b83 <fwrite>
    143d:	48 89 ee             	mov    %rbp,%rsi
    1440:	bf 3a 00 00 00       	mov    $0x3a,%edi
    1445:	e8 32 26 00 00       	call   3a7c <fputc>
    144a:	48 89 ee             	mov    %rbp,%rsi
    144d:	bf 20 00 00 00       	mov    $0x20,%edi
    1452:	e8 25 26 00 00       	call   3a7c <fputc>
    1457:	4c 89 ef             	mov    %r13,%rdi
    145a:	e8 31 19 00 00       	call   2d90 <strlen>
    145f:	48 89 e9             	mov    %rbp,%rcx
    1462:	ba 01 00 00 00       	mov    $0x1,%edx
    1467:	4c 89 ef             	mov    %r13,%rdi
    146a:	48 89 c6             	mov    %rax,%rsi
    146d:	e8 11 27 00 00       	call   3b83 <fwrite>
    1472:	48 89 ee             	mov    %rbp,%rsi
    1475:	bf 0a 00 00 00       	mov    $0xa,%edi
    147a:	e8 fd 25 00 00       	call   3a7c <fputc>
    147f:	44 89 3d 42 4c 20 00 	mov    %r15d,0x204c42(%rip)        # 2060c8 <__stderr_FILE+0x88>
    1486:	4c 89 35 93 4c 20 00 	mov    %r14,0x204c93(%rip)        # 206120 <__stderr_FILE+0xe0>
    148d:	85 db                	test   %ebx,%ebx
    148f:	74 13                	je     14a4 <perror+0xd6>
    1491:	5a                   	pop    %rdx
    1492:	48 89 ef             	mov    %rbp,%rdi
    1495:	5b                   	pop    %rbx
    1496:	5d                   	pop    %rbp
    1497:	41 5c                	pop    %r12
    1499:	41 5d                	pop    %r13
    149b:	41 5e                	pop    %r14
    149d:	41 5f                	pop    %r15
    149f:	e9 5d 23 00 00       	jmp    3801 <__unlockfile>
    14a4:	58                   	pop    %rax
    14a5:	5b                   	pop    %rbx
    14a6:	5d                   	pop    %rbp
    14a7:	41 5c                	pop    %r12
    14a9:	41 5d                	pop    %r13
    14ab:	41 5e                	pop    %r14
    14ad:	41 5f                	pop    %r15
    14af:	c3                   	ret    

00000000000014b0 <printf>:
    14b0:	48 81 ec d8 00 00 00 	sub    $0xd8,%rsp
    14b7:	49 89 fa             	mov    %rdi,%r10
    14ba:	48 89 74 24 28       	mov    %rsi,0x28(%rsp)
    14bf:	48 89 54 24 30       	mov    %rdx,0x30(%rsp)
    14c4:	48 89 4c 24 38       	mov    %rcx,0x38(%rsp)
    14c9:	4c 89 44 24 40       	mov    %r8,0x40(%rsp)
    14ce:	4c 89 4c 24 48       	mov    %r9,0x48(%rsp)
    14d3:	84 c0                	test   %al,%al
    14d5:	74 37                	je     150e <printf+0x5e>
    14d7:	0f 29 44 24 50       	movaps %xmm0,0x50(%rsp)
    14dc:	0f 29 4c 24 60       	movaps %xmm1,0x60(%rsp)
    14e1:	0f 29 54 24 70       	movaps %xmm2,0x70(%rsp)
    14e6:	0f 29 9c 24 80 00 00 	movaps %xmm3,0x80(%rsp)
    14ed:	00 
    14ee:	0f 29 a4 24 90 00 00 	movaps %xmm4,0x90(%rsp)
    14f5:	00 
    14f6:	0f 29 ac 24 a0 00 00 	movaps %xmm5,0xa0(%rsp)
    14fd:	00 
    14fe:	0f 29 b4 24 b0 00 00 	movaps %xmm6,0xb0(%rsp)
    1505:	00 
    1506:	0f 29 bc 24 c0 00 00 	movaps %xmm7,0xc0(%rsp)
    150d:	00 
    150e:	48 8d 84 24 e0 00 00 	lea    0xe0(%rsp),%rax
    1515:	00 
    1516:	48 8d 54 24 08       	lea    0x8(%rsp),%rdx
    151b:	4c 89 d6             	mov    %r10,%rsi
    151e:	c7 44 24 08 08 00 00 	movl   $0x8,0x8(%rsp)
    1525:	00 
    1526:	48 89 44 24 10       	mov    %rax,0x10(%rsp)
    152b:	48 8d 3d 0e 4c 20 00 	lea    0x204c0e(%rip),%rdi        # 206140 <__stdout_FILE>
    1532:	48 8d 44 24 20       	lea    0x20(%rsp),%rax
    1537:	c7 44 24 0c 30 00 00 	movl   $0x30,0xc(%rsp)
    153e:	00 
    153f:	48 89 44 24 18       	mov    %rax,0x18(%rsp)
    1544:	e8 b2 16 00 00       	call   2bfb <vfprintf>
    1549:	48 81 c4 d8 00 00 00 	add    $0xd8,%rsp
    1550:	c3                   	ret    

0000000000001551 <pop_arg>:
    1551:	83 ee 09             	sub    $0x9,%esi
    1554:	48 89 f9             	mov    %rdi,%rcx
    1557:	48 89 d0             	mov    %rdx,%rax
    155a:	83 fe 11             	cmp    $0x11,%esi
    155d:	0f 87 61 01 00 00    	ja     16c4 <pop_arg+0x173>
    1563:	48 8d 3d 1e 31 00 00 	lea    0x311e(%rip),%rdi        # 4688 <all_mask+0x8>
    156a:	48 63 14 b7          	movslq (%rdi,%rsi,4),%rdx
    156e:	48 01 fa             	add    %rdi,%rdx
    1571:	ff e2                	jmp    *%rdx
    1573:	8b 30                	mov    (%rax),%esi
    1575:	83 fe 2f             	cmp    $0x2f,%esi
    1578:	77 0d                	ja     1587 <pop_arg+0x36>
    157a:	89 f2                	mov    %esi,%edx
    157c:	83 c6 08             	add    $0x8,%esi
    157f:	48 03 50 10          	add    0x10(%rax),%rdx
    1583:	89 30                	mov    %esi,(%rax)
    1585:	eb 0c                	jmp    1593 <pop_arg+0x42>
    1587:	48 8b 50 08          	mov    0x8(%rax),%rdx
    158b:	48 8d 72 08          	lea    0x8(%rdx),%rsi
    158f:	48 89 70 08          	mov    %rsi,0x8(%rax)
    1593:	48 63 02             	movslq (%rdx),%rax
    1596:	48 89 01             	mov    %rax,(%rcx)
    1599:	c3                   	ret    
    159a:	8b 30                	mov    (%rax),%esi
    159c:	83 fe 2f             	cmp    $0x2f,%esi
    159f:	77 0d                	ja     15ae <pop_arg+0x5d>
    15a1:	89 f2                	mov    %esi,%edx
    15a3:	83 c6 08             	add    $0x8,%esi
    15a6:	48 03 50 10          	add    0x10(%rax),%rdx
    15aa:	89 30                	mov    %esi,(%rax)
    15ac:	eb 0c                	jmp    15ba <pop_arg+0x69>
    15ae:	48 8b 50 08          	mov    0x8(%rax),%rdx
    15b2:	48 8d 72 08          	lea    0x8(%rdx),%rsi
    15b6:	48 89 70 08          	mov    %rsi,0x8(%rax)
    15ba:	8b 02                	mov    (%rdx),%eax
    15bc:	eb d8                	jmp    1596 <pop_arg+0x45>
    15be:	8b 30                	mov    (%rax),%esi
    15c0:	83 fe 2f             	cmp    $0x2f,%esi
    15c3:	77 0d                	ja     15d2 <pop_arg+0x81>
    15c5:	89 f2                	mov    %esi,%edx
    15c7:	83 c6 08             	add    $0x8,%esi
    15ca:	48 03 50 10          	add    0x10(%rax),%rdx
    15ce:	89 30                	mov    %esi,(%rax)
    15d0:	eb 0c                	jmp    15de <pop_arg+0x8d>
    15d2:	48 8b 50 08          	mov    0x8(%rax),%rdx
    15d6:	48 8d 72 08          	lea    0x8(%rdx),%rsi
    15da:	48 89 70 08          	mov    %rsi,0x8(%rax)
    15de:	48 0f bf 02          	movswq (%rdx),%rax
    15e2:	eb b2                	jmp    1596 <pop_arg+0x45>
    15e4:	8b 30                	mov    (%rax),%esi
    15e6:	83 fe 2f             	cmp    $0x2f,%esi
    15e9:	77 0d                	ja     15f8 <pop_arg+0xa7>
    15eb:	89 f2                	mov    %esi,%edx
    15ed:	83 c6 08             	add    $0x8,%esi
    15f0:	48 03 50 10          	add    0x10(%rax),%rdx
    15f4:	89 30                	mov    %esi,(%rax)
    15f6:	eb 0c                	jmp    1604 <pop_arg+0xb3>
    15f8:	48 8b 50 08          	mov    0x8(%rax),%rdx
    15fc:	48 8d 72 08          	lea    0x8(%rdx),%rsi
    1600:	48 89 70 08          	mov    %rsi,0x8(%rax)
    1604:	0f b7 02             	movzwl (%rdx),%eax
    1607:	eb 8d                	jmp    1596 <pop_arg+0x45>
    1609:	8b 30                	mov    (%rax),%esi
    160b:	83 fe 2f             	cmp    $0x2f,%esi
    160e:	77 0d                	ja     161d <pop_arg+0xcc>
    1610:	89 f2                	mov    %esi,%edx
    1612:	83 c6 08             	add    $0x8,%esi
    1615:	48 03 50 10          	add    0x10(%rax),%rdx
    1619:	89 30                	mov    %esi,(%rax)
    161b:	eb 0c                	jmp    1629 <pop_arg+0xd8>
    161d:	48 8b 50 08          	mov    0x8(%rax),%rdx
    1621:	48 8d 72 08          	lea    0x8(%rdx),%rsi
    1625:	48 89 70 08          	mov    %rsi,0x8(%rax)
    1629:	48 0f be 02          	movsbq (%rdx),%rax
    162d:	e9 64 ff ff ff       	jmp    1596 <pop_arg+0x45>
    1632:	8b 30                	mov    (%rax),%esi
    1634:	83 fe 2f             	cmp    $0x2f,%esi
    1637:	77 0d                	ja     1646 <pop_arg+0xf5>
    1639:	89 f2                	mov    %esi,%edx
    163b:	83 c6 08             	add    $0x8,%esi
    163e:	48 03 50 10          	add    0x10(%rax),%rdx
    1642:	89 30                	mov    %esi,(%rax)
    1644:	eb 0c                	jmp    1652 <pop_arg+0x101>
    1646:	48 8b 50 08          	mov    0x8(%rax),%rdx
    164a:	48 8d 72 08          	lea    0x8(%rdx),%rsi
    164e:	48 89 70 08          	mov    %rsi,0x8(%rax)
    1652:	0f b6 02             	movzbl (%rdx),%eax
    1655:	e9 3c ff ff ff       	jmp    1596 <pop_arg+0x45>
    165a:	8b 30                	mov    (%rax),%esi
    165c:	83 fe 2f             	cmp    $0x2f,%esi
    165f:	77 0d                	ja     166e <pop_arg+0x11d>
    1661:	89 f2                	mov    %esi,%edx
    1663:	83 c6 08             	add    $0x8,%esi
    1666:	48 03 50 10          	add    0x10(%rax),%rdx
    166a:	89 30                	mov    %esi,(%rax)
    166c:	eb 0c                	jmp    167a <pop_arg+0x129>
    166e:	48 8b 50 08          	mov    0x8(%rax),%rdx
    1672:	48 8d 72 08          	lea    0x8(%rdx),%rsi
    1676:	48 89 70 08          	mov    %rsi,0x8(%rax)
    167a:	48 8b 02             	mov    (%rdx),%rax
    167d:	e9 14 ff ff ff       	jmp    1596 <pop_arg+0x45>
    1682:	8b 70 04             	mov    0x4(%rax),%esi
    1685:	81 fe af 00 00 00    	cmp    $0xaf,%esi
    168b:	77 0e                	ja     169b <pop_arg+0x14a>
    168d:	89 f2                	mov    %esi,%edx
    168f:	83 c6 10             	add    $0x10,%esi
    1692:	48 03 50 10          	add    0x10(%rax),%rdx
    1696:	89 70 04             	mov    %esi,0x4(%rax)
    1699:	eb 0c                	jmp    16a7 <pop_arg+0x156>
    169b:	48 8b 50 08          	mov    0x8(%rax),%rdx
    169f:	48 8d 72 08          	lea    0x8(%rdx),%rsi
    16a3:	48 89 70 08          	mov    %rsi,0x8(%rax)
    16a7:	dd 02                	fldl   (%rdx)
    16a9:	db 39                	fstpt  (%rcx)
    16ab:	c3                   	ret    
    16ac:	48 8b 78 08          	mov    0x8(%rax),%rdi
    16b0:	48 8d 57 0f          	lea    0xf(%rdi),%rdx
    16b4:	48 83 e2 f0          	and    $0xfffffffffffffff0,%rdx
    16b8:	48 8d 72 10          	lea    0x10(%rdx),%rsi
    16bc:	48 89 70 08          	mov    %rsi,0x8(%rax)
    16c0:	db 2a                	fldt   (%rdx)
    16c2:	db 39                	fstpt  (%rcx)
    16c4:	c3                   	ret    

00000000000016c5 <fmt_u>:
    16c5:	48 89 f8             	mov    %rdi,%rax
    16c8:	49 89 f0             	mov    %rsi,%r8
    16cb:	b9 0a 00 00 00       	mov    $0xa,%ecx
    16d0:	48 85 c0             	test   %rax,%rax
    16d3:	74 10                	je     16e5 <fmt_u+0x20>
    16d5:	31 d2                	xor    %edx,%edx
    16d7:	49 ff c8             	dec    %r8
    16da:	48 f7 f1             	div    %rcx
    16dd:	83 c2 30             	add    $0x30,%edx
    16e0:	41 88 10             	mov    %dl,(%r8)
    16e3:	eb eb                	jmp    16d0 <fmt_u+0xb>
    16e5:	4c 89 c0             	mov    %r8,%rax
    16e8:	c3                   	ret    

00000000000016e9 <getint>:
    16e9:	31 c0                	xor    %eax,%eax
    16eb:	48 8b 0f             	mov    (%rdi),%rcx
    16ee:	0f be 11             	movsbl (%rcx),%edx
    16f1:	83 ea 30             	sub    $0x30,%edx
    16f4:	83 fa 09             	cmp    $0x9,%edx
    16f7:	77 2a                	ja     1723 <getint+0x3a>
    16f9:	3d cc cc cc 0c       	cmp    $0xccccccc,%eax
    16fe:	77 18                	ja     1718 <getint+0x2f>
    1700:	6b f0 f6             	imul   $0xfffffff6,%eax,%esi
    1703:	83 c8 ff             	or     $0xffffffff,%eax
    1706:	44 8d 86 ff ff ff 7f 	lea    0x7fffffff(%rsi),%r8d
    170d:	44 39 c2             	cmp    %r8d,%edx
    1710:	7f 09                	jg     171b <getint+0x32>
    1712:	89 d0                	mov    %edx,%eax
    1714:	29 f0                	sub    %esi,%eax
    1716:	eb 03                	jmp    171b <getint+0x32>
    1718:	83 c8 ff             	or     $0xffffffff,%eax
    171b:	48 ff c1             	inc    %rcx
    171e:	48 89 0f             	mov    %rcx,(%rdi)
    1721:	eb c8                	jmp    16eb <getint+0x2>
    1723:	c3                   	ret    

0000000000001724 <out>:
    1724:	49 89 f8             	mov    %rdi,%r8
    1727:	48 89 f7             	mov    %rsi,%rdi
    172a:	48 89 d6             	mov    %rdx,%rsi
    172d:	41 f6 00 20          	testb  $0x20,(%r8)
    1731:	75 08                	jne    173b <out+0x17>
    1733:	4c 89 c2             	mov    %r8,%rdx
    1736:	e9 9a 23 00 00       	jmp    3ad5 <__fwritex>
    173b:	c3                   	ret    

000000000000173c <pad>:
    173c:	41 81 e0 00 20 01 00 	and    $0x12000,%r8d
    1743:	0f 85 82 00 00 00    	jne    17cb <pad+0x8f>
    1749:	41 55                	push   %r13
    174b:	41 54                	push   %r12
    174d:	55                   	push   %rbp
    174e:	53                   	push   %rbx
    174f:	89 d3                	mov    %edx,%ebx
    1751:	48 81 ec 08 01 00 00 	sub    $0x108,%rsp
    1758:	39 d1                	cmp    %edx,%ecx
    175a:	7d 61                	jge    17bd <pad+0x81>
    175c:	29 cb                	sub    %ecx,%ebx
    175e:	ba 00 01 00 00       	mov    $0x100,%edx
    1763:	49 89 e4             	mov    %rsp,%r12
    1766:	48 89 fd             	mov    %rdi,%rbp
    1769:	39 d3                	cmp    %edx,%ebx
    176b:	40 0f be f6          	movsbl %sil,%esi
    176f:	4c 89 e7             	mov    %r12,%rdi
    1772:	41 89 dd             	mov    %ebx,%r13d
    1775:	0f 4e d3             	cmovle %ebx,%edx
    1778:	48 63 d2             	movslq %edx,%rdx
    177b:	e8 bd 16 00 00       	call   2e3d <memset>
    1780:	41 81 fd ff 00 00 00 	cmp    $0xff,%r13d
    1787:	7e 19                	jle    17a2 <pad+0x66>
    1789:	ba 00 01 00 00       	mov    $0x100,%edx
    178e:	4c 89 e6             	mov    %r12,%rsi
    1791:	48 89 ef             	mov    %rbp,%rdi
    1794:	41 81 ed 00 01 00 00 	sub    $0x100,%r13d
    179b:	e8 84 ff ff ff       	call   1724 <out>
    17a0:	eb de                	jmp    1780 <pad+0x44>
    17a2:	89 da                	mov    %ebx,%edx
    17a4:	4c 89 e6             	mov    %r12,%rsi
    17a7:	48 89 ef             	mov    %rbp,%rdi
    17aa:	c1 ea 08             	shr    $0x8,%edx
    17ad:	69 d2 00 ff ff ff    	imul   $0xffffff00,%edx,%edx
    17b3:	01 da                	add    %ebx,%edx
    17b5:	48 63 d2             	movslq %edx,%rdx
    17b8:	e8 67 ff ff ff       	call   1724 <out>
    17bd:	48 81 c4 08 01 00 00 	add    $0x108,%rsp
    17c4:	5b                   	pop    %rbx
    17c5:	5d                   	pop    %rbp
    17c6:	41 5c                	pop    %r12
    17c8:	41 5d                	pop    %r13
    17ca:	c3                   	ret    
    17cb:	c3                   	ret    

00000000000017cc <fmt_fp>:
    17cc:	41 57                	push   %r15
    17ce:	49 89 ff             	mov    %rdi,%r15
    17d1:	41 56                	push   %r14
    17d3:	41 55                	push   %r13
    17d5:	41 54                	push   %r12
    17d7:	55                   	push   %rbp
    17d8:	53                   	push   %rbx
    17d9:	89 d3                	mov    %edx,%ebx
    17db:	48 81 ec 38 1d 00 00 	sub    $0x1d38,%rsp
    17e2:	db ac 24 70 1d 00 00 	fldt   0x1d70(%rsp)
    17e9:	89 74 24 38          	mov    %esi,0x38(%rsp)
    17ed:	89 4c 24 20          	mov    %ecx,0x20(%rsp)
    17f1:	44 89 44 24 24       	mov    %r8d,0x24(%rsp)
    17f6:	db 3c 24             	fstpt  (%rsp)
    17f9:	c7 44 24 58 00 00 00 	movl   $0x0,0x58(%rsp)
    1800:	00 
    1801:	e8 eb 1d 00 00       	call   35f1 <__signbitl>
    1806:	41 59                	pop    %r9
    1808:	41 5a                	pop    %r10
    180a:	db ac 24 60 1d 00 00 	fldt   0x1d60(%rsp)
    1811:	85 c0                	test   %eax,%eax
    1813:	74 12                	je     1827 <fmt_fp+0x5b>
    1815:	c7 04 24 01 00 00 00 	movl   $0x1,(%rsp)
    181c:	d9 e0                	fchs   
    181e:	4c 8d 2d ab 2e 00 00 	lea    0x2eab(%rip),%r13        # 46d0 <all_mask+0x50>
    1825:	eb 33                	jmp    185a <fmt_fp+0x8e>
    1827:	0f ba 64 24 10 0b    	btl    $0xb,0x10(%rsp)
    182d:	4c 8d 2d 9f 2e 00 00 	lea    0x2e9f(%rip),%r13        # 46d3 <all_mask+0x53>
    1834:	c7 04 24 01 00 00 00 	movl   $0x1,(%rsp)
    183b:	72 1d                	jb     185a <fmt_fp+0x8e>
    183d:	f6 44 24 10 01       	testb  $0x1,0x10(%rsp)
    1842:	49 8d 55 03          	lea    0x3(%r13),%rdx
    1846:	49 8d 45 fe          	lea    -0x2(%r13),%rax
    184a:	48 0f 45 c2          	cmovne %rdx,%rax
    184e:	49 89 c5             	mov    %rax,%r13
    1851:	0f 95 c0             	setne  %al
    1854:	0f b6 c0             	movzbl %al,%eax
    1857:	89 04 24             	mov    %eax,(%rsp)
    185a:	56                   	push   %rsi
    185b:	56                   	push   %rsi
    185c:	d9 c0                	fld    %st(0)
    185e:	db 3c 24             	fstpt  (%rsp)
    1861:	db bc 24 70 1d 00 00 	fstpt  0x1d70(%rsp)
    1868:	e8 30 1d 00 00       	call   359d <__fpclassifyl>
    186d:	5f                   	pop    %rdi
    186e:	41 58                	pop    %r8
    1870:	db ac 24 60 1d 00 00 	fldt   0x1d60(%rsp)
    1877:	ff c8                	dec    %eax
    1879:	7f 72                	jg     18ed <fmt_fp+0x121>
    187b:	8b 44 24 14          	mov    0x14(%rsp),%eax
    187f:	48 8d 2d 5d 2e 00 00 	lea    0x2e5d(%rip),%rbp        # 46e3 <all_mask+0x63>
    1886:	48 8d 15 5a 2e 00 00 	lea    0x2e5a(%rip),%rdx        # 46e7 <all_mask+0x67>
    188d:	83 e0 20             	and    $0x20,%eax
    1890:	48 0f 44 ea          	cmove  %rdx,%rbp
    1894:	df e8                	fucomip %st(0),%st
    1896:	7b 14                	jnp    18ac <fmt_fp+0xe0>
    1898:	85 c0                	test   %eax,%eax
    189a:	48 8d 2d 4e 2e 00 00 	lea    0x2e4e(%rip),%rbp        # 46ef <all_mask+0x6f>
    18a1:	48 8d 05 43 2e 00 00 	lea    0x2e43(%rip),%rax        # 46eb <all_mask+0x6b>
    18a8:	48 0f 44 e8          	cmove  %rax,%rbp
    18ac:	8b 04 24             	mov    (%rsp),%eax
    18af:	44 8b 44 24 10       	mov    0x10(%rsp),%r8d
    18b4:	be 20 00 00 00       	mov    $0x20,%esi
    18b9:	4c 89 ff             	mov    %r15,%rdi
    18bc:	8b 54 24 28          	mov    0x28(%rsp),%edx
    18c0:	8d 58 03             	lea    0x3(%rax),%ebx
    18c3:	41 81 e0 ff ff fe ff 	and    $0xfffeffff,%r8d
    18ca:	89 d9                	mov    %ebx,%ecx
    18cc:	e8 6b fe ff ff       	call   173c <pad>
    18d1:	48 63 14 24          	movslq (%rsp),%rdx
    18d5:	4c 89 ee             	mov    %r13,%rsi
    18d8:	4c 89 ff             	mov    %r15,%rdi
    18db:	e8 44 fe ff ff       	call   1724 <out>
    18e0:	ba 03 00 00 00       	mov    $0x3,%edx
    18e5:	48 89 ee             	mov    %rbp,%rsi
    18e8:	e9 31 02 00 00       	jmp    1b1e <fmt_fp+0x352>
    18ed:	48 8d 7c 24 48       	lea    0x48(%rsp),%rdi
    18f2:	50                   	push   %rax
    18f3:	50                   	push   %rax
    18f4:	db 3c 24             	fstpt  (%rsp)
    18f7:	e8 01 1d 00 00       	call   35fd <frexpl>
    18fc:	5a                   	pop    %rdx
    18fd:	59                   	pop    %rcx
    18fe:	d8 c0                	fadd   %st(0),%st
    1900:	d9 ee                	fldz   
    1902:	d9 c9                	fxch   %st(1)
    1904:	db e9                	fucomi %st(1),%st
    1906:	7a 02                	jp     190a <fmt_fp+0x13e>
    1908:	74 04                	je     190e <fmt_fp+0x142>
    190a:	ff 4c 24 48          	decl   0x48(%rsp)
    190e:	44 8b 54 24 14       	mov    0x14(%rsp),%r10d
    1913:	41 83 ca 20          	or     $0x20,%r10d
    1917:	41 83 fa 61          	cmp    $0x61,%r10d
    191b:	0f 85 34 02 00 00    	jne    1b55 <fmt_fp+0x389>
    1921:	dd d9                	fstp   %st(1)
    1923:	f6 44 24 14 20       	testb  $0x20,0x14(%rsp)
    1928:	74 04                	je     192e <fmt_fp+0x162>
    192a:	49 83 c5 09          	add    $0x9,%r13
    192e:	8b 2c 24             	mov    (%rsp),%ebp
    1931:	d9 05 c9 30 00 00    	flds   0x30c9(%rip)        # 4a00 <states+0x1e0>
    1937:	83 c5 02             	add    $0x2,%ebp
    193a:	83 fb 0e             	cmp    $0xe,%ebx
    193d:	77 31                	ja     1970 <fmt_fp+0x1a4>
    193f:	d9 05 ab 30 00 00    	flds   0x30ab(%rip)        # 49f0 <states+0x1d0>
    1945:	b8 0f 00 00 00       	mov    $0xf,%eax
    194a:	29 d8                	sub    %ebx,%eax
    194c:	83 e8 01             	sub    $0x1,%eax
    194f:	72 04                	jb     1955 <fmt_fp+0x189>
    1951:	d8 c9                	fmul   %st(1),%st
    1953:	eb f7                	jmp    194c <fmt_fp+0x180>
    1955:	dd d9                	fstp   %st(1)
    1957:	41 80 7d 00 2d       	cmpb   $0x2d,0x0(%r13)
    195c:	75 0c                	jne    196a <fmt_fp+0x19e>
    195e:	d9 c9                	fxch   %st(1)
    1960:	d9 e0                	fchs   
    1962:	d8 e1                	fsub   %st(1),%st
    1964:	de c1                	faddp  %st,%st(1)
    1966:	d9 e0                	fchs   
    1968:	eb 08                	jmp    1972 <fmt_fp+0x1a6>
    196a:	dc c1                	fadd   %st,%st(1)
    196c:	de e9                	fsubrp %st,%st(1)
    196e:	eb 02                	jmp    1972 <fmt_fp+0x1a6>
    1970:	dd d8                	fstp   %st(0)
    1972:	8b 44 24 48          	mov    0x48(%rsp),%eax
    1976:	48 8d 74 24 5b       	lea    0x5b(%rsp),%rsi
    197b:	db 3c 24             	fstpt  (%rsp)
    197e:	89 c7                	mov    %eax,%edi
    1980:	f7 df                	neg    %edi
    1982:	0f 48 f8             	cmovs  %eax,%edi
    1985:	48 63 ff             	movslq %edi,%rdi
    1988:	e8 38 fd ff ff       	call   16c5 <fmt_u>
    198d:	db 2c 24             	fldt   (%rsp)
    1990:	48 39 f0             	cmp    %rsi,%rax
    1993:	d9 ee                	fldz   
    1995:	db 2d 85 30 00 00    	fldt   0x3085(%rip)        # 4a20 <states+0x200>
    199b:	75 0a                	jne    19a7 <fmt_fp+0x1db>
    199d:	c6 44 24 5a 30       	movb   $0x30,0x5a(%rsp)
    19a2:	48 8d 44 24 5a       	lea    0x5a(%rsp),%rax
    19a7:	d9 ca                	fxch   %st(2)
    19a9:	8b 54 24 48          	mov    0x48(%rsp),%edx
    19ad:	8a 4c 24 14          	mov    0x14(%rsp),%cl
    19b1:	4c 8d 50 fe          	lea    -0x2(%rax),%r10
    19b5:	41 b0 01             	mov    $0x1,%r8b
    19b8:	40 8a 7c 24 14       	mov    0x14(%rsp),%dil
    19bd:	44 8b 4c 24 10       	mov    0x10(%rsp),%r9d
    19c2:	c1 fa 1f             	sar    $0x1f,%edx
    19c5:	83 e2 02             	and    $0x2,%edx
    19c8:	83 e7 20             	and    $0x20,%edi
    19cb:	41 83 e1 08          	and    $0x8,%r9d
    19cf:	83 c2 2b             	add    $0x2b,%edx
    19d2:	88 50 ff             	mov    %dl,-0x1(%rax)
    19d5:	8d 51 0f             	lea    0xf(%rcx),%edx
    19d8:	48 8d 0d 31 2e 00 00 	lea    0x2e31(%rip),%rcx        # 4810 <xdigits>
    19df:	88 50 fe             	mov    %dl,-0x2(%rax)
    19e2:	48 89 f0             	mov    %rsi,%rax
    19e5:	d9 7c 24 3e          	fnstcw 0x3e(%rsp)
    19e9:	66 8b 54 24 3e       	mov    0x3e(%rsp),%dx
    19ee:	80 ce 0c             	or     $0xc,%dh
    19f1:	66 89 54 24 3c       	mov    %dx,0x3c(%rsp)
    19f6:	d9 c0                	fld    %st(0)
    19f8:	d9 6c 24 3c          	fldcw  0x3c(%rsp)
    19fc:	db 5c 24 14          	fistpl 0x14(%rsp)
    1a00:	d9 6c 24 3e          	fldcw  0x3e(%rsp)
    1a04:	4c 8d 60 01          	lea    0x1(%rax),%r12
    1a08:	da 64 24 14          	fisubl 0x14(%rsp)
    1a0c:	48 63 54 24 14       	movslq 0x14(%rsp),%rdx
    1a11:	44 8a 1c 11          	mov    (%rcx,%rdx,1),%r11b
    1a15:	41 09 fb             	or     %edi,%r11d
    1a18:	d8 ca                	fmul   %st(2),%st
    1a1a:	44 88 18             	mov    %r11b,(%rax)
    1a1d:	48 39 f0             	cmp    %rsi,%rax
    1a20:	75 1e                	jne    1a40 <fmt_fp+0x274>
    1a22:	db e9                	fucomi %st(1),%st
    1a24:	0f 9a c2             	setp   %dl
    1a27:	41 0f 45 d0          	cmovne %r8d,%edx
    1a2b:	84 d2                	test   %dl,%dl
    1a2d:	75 09                	jne    1a38 <fmt_fp+0x26c>
    1a2f:	85 db                	test   %ebx,%ebx
    1a31:	7f 05                	jg     1a38 <fmt_fp+0x26c>
    1a33:	45 85 c9             	test   %r9d,%r9d
    1a36:	74 1b                	je     1a53 <fmt_fp+0x287>
    1a38:	c6 40 01 2e          	movb   $0x2e,0x1(%rax)
    1a3c:	4c 8d 60 02          	lea    0x2(%rax),%r12
    1a40:	db e9                	fucomi %st(1),%st
    1a42:	7b 05                	jnp    1a49 <fmt_fp+0x27d>
    1a44:	4c 89 e0             	mov    %r12,%rax
    1a47:	eb ad                	jmp    19f6 <fmt_fp+0x22a>
    1a49:	75 f9                	jne    1a44 <fmt_fp+0x278>
    1a4b:	dd d8                	fstp   %st(0)
    1a4d:	dd d8                	fstp   %st(0)
    1a4f:	dd d8                	fstp   %st(0)
    1a51:	eb 06                	jmp    1a59 <fmt_fp+0x28d>
    1a53:	dd d8                	fstp   %st(0)
    1a55:	dd d8                	fstp   %st(0)
    1a57:	dd d8                	fstp   %st(0)
    1a59:	49 89 f6             	mov    %rsi,%r14
    1a5c:	b8 fd ff ff 7f       	mov    $0x7ffffffd,%eax
    1a61:	48 63 cd             	movslq %ebp,%rcx
    1a64:	48 63 d3             	movslq %ebx,%rdx
    1a67:	4d 29 d6             	sub    %r10,%r14
    1a6a:	4c 29 f0             	sub    %r14,%rax
    1a6d:	48 29 c8             	sub    %rcx,%rax
    1a70:	48 39 c2             	cmp    %rax,%rdx
    1a73:	7e 08                	jle    1a7d <fmt_fp+0x2b1>
    1a75:	83 c8 ff             	or     $0xffffffff,%eax
    1a78:	e9 4f 08 00 00       	jmp    22cc <fmt_fp+0xb00>
    1a7d:	49 29 f4             	sub    %rsi,%r12
    1a80:	85 db                	test   %ebx,%ebx
    1a82:	74 11                	je     1a95 <fmt_fp+0x2c9>
    1a84:	49 8d 44 24 ff       	lea    -0x1(%r12),%rax
    1a89:	48 39 c2             	cmp    %rax,%rdx
    1a8c:	7c 07                	jl     1a95 <fmt_fp+0x2c9>
    1a8e:	42 8d 44 33 02       	lea    0x2(%rbx,%r14,1),%eax
    1a93:	eb 04                	jmp    1a99 <fmt_fp+0x2cd>
    1a95:	43 8d 04 26          	lea    (%r14,%r12,1),%eax
    1a99:	8d 1c 28             	lea    (%rax,%rbp,1),%ebx
    1a9c:	44 8b 44 24 10       	mov    0x10(%rsp),%r8d
    1aa1:	8b 54 24 28          	mov    0x28(%rsp),%edx
    1aa5:	4c 89 ff             	mov    %r15,%rdi
    1aa8:	89 d9                	mov    %ebx,%ecx
    1aaa:	be 20 00 00 00       	mov    $0x20,%esi
    1aaf:	4c 89 14 24          	mov    %r10,(%rsp)
    1ab3:	89 44 24 14          	mov    %eax,0x14(%rsp)
    1ab7:	e8 80 fc ff ff       	call   173c <pad>
    1abc:	48 63 d5             	movslq %ebp,%rdx
    1abf:	4c 89 ee             	mov    %r13,%rsi
    1ac2:	4c 89 ff             	mov    %r15,%rdi
    1ac5:	e8 5a fc ff ff       	call   1724 <out>
    1aca:	44 8b 44 24 10       	mov    0x10(%rsp),%r8d
    1acf:	8b 54 24 28          	mov    0x28(%rsp),%edx
    1ad3:	89 d9                	mov    %ebx,%ecx
    1ad5:	be 30 00 00 00       	mov    $0x30,%esi
    1ada:	4c 89 ff             	mov    %r15,%rdi
    1add:	41 81 f0 00 00 01 00 	xor    $0x10000,%r8d
    1ae4:	e8 53 fc ff ff       	call   173c <pad>
    1ae9:	4c 89 e2             	mov    %r12,%rdx
    1aec:	48 8d 74 24 5b       	lea    0x5b(%rsp),%rsi
    1af1:	4c 89 ff             	mov    %r15,%rdi
    1af4:	e8 2b fc ff ff       	call   1724 <out>
    1af9:	8b 44 24 14          	mov    0x14(%rsp),%eax
    1afd:	45 01 f4             	add    %r14d,%r12d
    1b00:	45 31 c0             	xor    %r8d,%r8d
    1b03:	be 30 00 00 00       	mov    $0x30,%esi
    1b08:	31 c9                	xor    %ecx,%ecx
    1b0a:	4c 89 ff             	mov    %r15,%rdi
    1b0d:	44 29 e0             	sub    %r12d,%eax
    1b10:	89 c2                	mov    %eax,%edx
    1b12:	e8 25 fc ff ff       	call   173c <pad>
    1b17:	48 8b 34 24          	mov    (%rsp),%rsi
    1b1b:	4c 89 f2             	mov    %r14,%rdx
    1b1e:	4c 89 ff             	mov    %r15,%rdi
    1b21:	e8 fe fb ff ff       	call   1724 <out>
    1b26:	44 8b 44 24 10       	mov    0x10(%rsp),%r8d
    1b2b:	8b 54 24 28          	mov    0x28(%rsp),%edx
    1b2f:	89 d9                	mov    %ebx,%ecx
    1b31:	be 20 00 00 00       	mov    $0x20,%esi
    1b36:	4c 89 ff             	mov    %r15,%rdi
    1b39:	41 81 f0 00 20 00 00 	xor    $0x2000,%r8d
    1b40:	e8 f7 fb ff ff       	call   173c <pad>
    1b45:	8b 44 24 28          	mov    0x28(%rsp),%eax
    1b49:	3b 5c 24 28          	cmp    0x28(%rsp),%ebx
    1b4d:	0f 4d c3             	cmovge %ebx,%eax
    1b50:	e9 77 07 00 00       	jmp    22cc <fmt_fp+0xb00>
    1b55:	85 db                	test   %ebx,%ebx
    1b57:	79 05                	jns    1b5e <fmt_fp+0x392>
    1b59:	bb 06 00 00 00       	mov    $0x6,%ebx
    1b5e:	db e9                	fucomi %st(1),%st
    1b60:	7a 02                	jp     1b64 <fmt_fp+0x398>
    1b62:	74 0b                	je     1b6f <fmt_fp+0x3a3>
    1b64:	d8 0d 9a 2e 00 00    	fmuls  0x2e9a(%rip)        # 4a04 <states+0x1e4>
    1b6a:	83 6c 24 48 1c       	subl   $0x1c,0x48(%rsp)
    1b6f:	8b 74 24 48          	mov    0x48(%rsp),%esi
    1b73:	4c 8d b4 24 1c 1c 00 	lea    0x1c1c(%rsp),%r14
    1b7a:	00 
    1b7b:	85 f6                	test   %esi,%esi
    1b7d:	79 05                	jns    1b84 <fmt_fp+0x3b8>
    1b7f:	4c 8d 74 24 74       	lea    0x74(%rsp),%r14
    1b84:	d9 7c 24 3e          	fnstcw 0x3e(%rsp)
    1b88:	4c 89 f5             	mov    %r14,%rbp
    1b8b:	66 8b 44 24 3e       	mov    0x3e(%rsp),%ax
    1b90:	80 cc 0c             	or     $0xc,%ah
    1b93:	66 89 44 24 3c       	mov    %ax,0x3c(%rsp)
    1b98:	d9 c0                	fld    %st(0)
    1b9a:	d9 6c 24 3c          	fldcw  0x3c(%rsp)
    1b9e:	df 7c 24 20          	fistpll 0x20(%rsp)
    1ba2:	d9 6c 24 3e          	fldcw  0x3e(%rsp)
    1ba6:	48 83 c5 04          	add    $0x4,%rbp
    1baa:	48 8b 44 24 20       	mov    0x20(%rsp),%rax
    1baf:	89 45 fc             	mov    %eax,-0x4(%rbp)
    1bb2:	89 c0                	mov    %eax,%eax
    1bb4:	48 89 44 24 20       	mov    %rax,0x20(%rsp)
    1bb9:	df 6c 24 20          	fildll 0x20(%rsp)
    1bbd:	de e9                	fsubrp %st,%st(1)
    1bbf:	d8 0d 43 2e 00 00    	fmuls  0x2e43(%rip)        # 4a08 <states+0x1e8>
    1bc5:	db e9                	fucomi %st(1),%st
    1bc7:	7a cf                	jp     1b98 <fmt_fp+0x3cc>
    1bc9:	75 cd                	jne    1b98 <fmt_fp+0x3cc>
    1bcb:	dd d8                	fstp   %st(0)
    1bcd:	dd d8                	fstp   %st(0)
    1bcf:	4d 89 f1             	mov    %r14,%r9
    1bd2:	31 c0                	xor    %eax,%eax
    1bd4:	41 b8 00 ca 9a 3b    	mov    $0x3b9aca00,%r8d
    1bda:	85 f6                	test   %esi,%esi
    1bdc:	7e 50                	jle    1c2e <fmt_fp+0x462>
    1bde:	b9 1d 00 00 00       	mov    $0x1d,%ecx
    1be3:	48 8d 7d fc          	lea    -0x4(%rbp),%rdi
    1be7:	39 ce                	cmp    %ecx,%esi
    1be9:	0f 4e ce             	cmovle %esi,%ecx
    1bec:	31 c0                	xor    %eax,%eax
    1bee:	49 39 f9             	cmp    %rdi,%r9
    1bf1:	77 18                	ja     1c0b <fmt_fp+0x43f>
    1bf3:	8b 17                	mov    (%rdi),%edx
    1bf5:	89 c0                	mov    %eax,%eax
    1bf7:	48 83 ef 04          	sub    $0x4,%rdi
    1bfb:	48 d3 e2             	shl    %cl,%rdx
    1bfe:	48 01 d0             	add    %rdx,%rax
    1c01:	31 d2                	xor    %edx,%edx
    1c03:	49 f7 f0             	div    %r8
    1c06:	89 57 04             	mov    %edx,0x4(%rdi)
    1c09:	eb e3                	jmp    1bee <fmt_fp+0x422>
    1c0b:	85 c0                	test   %eax,%eax
    1c0d:	74 14                	je     1c23 <fmt_fp+0x457>
    1c0f:	41 89 41 fc          	mov    %eax,-0x4(%r9)
    1c13:	49 83 e9 04          	sub    $0x4,%r9
    1c17:	eb 0a                	jmp    1c23 <fmt_fp+0x457>
    1c19:	83 7d fc 00          	cmpl   $0x0,-0x4(%rbp)
    1c1d:	75 09                	jne    1c28 <fmt_fp+0x45c>
    1c1f:	48 83 ed 04          	sub    $0x4,%rbp
    1c23:	4c 39 cd             	cmp    %r9,%rbp
    1c26:	77 f1                	ja     1c19 <fmt_fp+0x44d>
    1c28:	29 ce                	sub    %ecx,%esi
    1c2a:	b0 01                	mov    $0x1,%al
    1c2c:	eb ac                	jmp    1bda <fmt_fp+0x40e>
    1c2e:	84 c0                	test   %al,%al
    1c30:	74 04                	je     1c36 <fmt_fp+0x46a>
    1c32:	89 74 24 48          	mov    %esi,0x48(%rsp)
    1c36:	8d 43 1d             	lea    0x1d(%rbx),%eax
    1c39:	b9 09 00 00 00       	mov    $0x9,%ecx
    1c3e:	31 d2                	xor    %edx,%edx
    1c40:	f7 f1                	div    %ecx
    1c42:	31 d2                	xor    %edx,%edx
    1c44:	44 8d 60 01          	lea    0x1(%rax),%r12d
    1c48:	8b 44 24 48          	mov    0x48(%rsp),%eax
    1c4c:	4e 8d 1c a5 00 00 00 	lea    0x0(,%r12,4),%r11
    1c53:	00 
    1c54:	85 c0                	test   %eax,%eax
    1c56:	0f 89 8f 00 00 00    	jns    1ceb <fmt_fp+0x51f>
    1c5c:	b9 09 00 00 00       	mov    $0x9,%ecx
    1c61:	83 f8 f7             	cmp    $0xfffffff7,%eax
    1c64:	7c 04                	jl     1c6a <fmt_fp+0x49e>
    1c66:	89 c1                	mov    %eax,%ecx
    1c68:	f7 d9                	neg    %ecx
    1c6a:	41 b8 01 00 00 00    	mov    $0x1,%r8d
    1c70:	4c 89 ca             	mov    %r9,%rdx
    1c73:	31 f6                	xor    %esi,%esi
    1c75:	41 d3 e0             	shl    %cl,%r8d
    1c78:	41 8d 78 ff          	lea    -0x1(%r8),%edi
    1c7c:	89 7c 24 2c          	mov    %edi,0x2c(%rsp)
    1c80:	bf 00 ca 9a 3b       	mov    $0x3b9aca00,%edi
    1c85:	d3 ff                	sar    %cl,%edi
    1c87:	89 7c 24 20          	mov    %edi,0x20(%rsp)
    1c8b:	48 39 ea             	cmp    %rbp,%rdx
    1c8e:	73 1f                	jae    1caf <fmt_fp+0x4e3>
    1c90:	8b 3a                	mov    (%rdx),%edi
    1c92:	48 83 c2 04          	add    $0x4,%rdx
    1c96:	41 89 f8             	mov    %edi,%r8d
    1c99:	23 7c 24 2c          	and    0x2c(%rsp),%edi
    1c9d:	0f af 7c 24 20       	imul   0x20(%rsp),%edi
    1ca2:	41 d3 e8             	shr    %cl,%r8d
    1ca5:	44 01 c6             	add    %r8d,%esi
    1ca8:	89 72 fc             	mov    %esi,-0x4(%rdx)
    1cab:	89 fe                	mov    %edi,%esi
    1cad:	eb dc                	jmp    1c8b <fmt_fp+0x4bf>
    1caf:	41 83 39 00          	cmpl   $0x0,(%r9)
    1cb3:	75 04                	jne    1cb9 <fmt_fp+0x4ed>
    1cb5:	49 83 c1 04          	add    $0x4,%r9
    1cb9:	85 f6                	test   %esi,%esi
    1cbb:	74 07                	je     1cc4 <fmt_fp+0x4f8>
    1cbd:	89 75 00             	mov    %esi,0x0(%rbp)
    1cc0:	48 83 c5 04          	add    $0x4,%rbp
    1cc4:	41 83 fa 66          	cmp    $0x66,%r10d
    1cc8:	4c 89 ce             	mov    %r9,%rsi
    1ccb:	48 89 ea             	mov    %rbp,%rdx
    1cce:	49 0f 44 f6          	cmove  %r14,%rsi
    1cd2:	48 29 f2             	sub    %rsi,%rdx
    1cd5:	48 c1 fa 02          	sar    $0x2,%rdx
    1cd9:	4c 39 e2             	cmp    %r12,%rdx
    1cdc:	7e 04                	jle    1ce2 <fmt_fp+0x516>
    1cde:	4a 8d 2c 1e          	lea    (%rsi,%r11,1),%rbp
    1ce2:	01 c8                	add    %ecx,%eax
    1ce4:	b2 01                	mov    $0x1,%dl
    1ce6:	e9 69 ff ff ff       	jmp    1c54 <fmt_fp+0x488>
    1ceb:	84 d2                	test   %dl,%dl
    1ced:	74 04                	je     1cf3 <fmt_fp+0x527>
    1cef:	89 44 24 48          	mov    %eax,0x48(%rsp)
    1cf3:	45 31 e4             	xor    %r12d,%r12d
    1cf6:	49 39 e9             	cmp    %rbp,%r9
    1cf9:	73 22                	jae    1d1d <fmt_fp+0x551>
    1cfb:	4d 89 f4             	mov    %r14,%r12
    1cfe:	41 8b 11             	mov    (%r9),%edx
    1d01:	b8 0a 00 00 00       	mov    $0xa,%eax
    1d06:	4d 29 cc             	sub    %r9,%r12
    1d09:	49 c1 fc 02          	sar    $0x2,%r12
    1d0d:	47 8d 24 e4          	lea    (%r12,%r12,8),%r12d
    1d11:	39 c2                	cmp    %eax,%edx
    1d13:	72 08                	jb     1d1d <fmt_fp+0x551>
    1d15:	6b c0 0a             	imul   $0xa,%eax,%eax
    1d18:	41 ff c4             	inc    %r12d
    1d1b:	eb f4                	jmp    1d11 <fmt_fp+0x545>
    1d1d:	31 d2                	xor    %edx,%edx
    1d1f:	41 83 fa 66          	cmp    $0x66,%r10d
    1d23:	89 d8                	mov    %ebx,%eax
    1d25:	0f 95 c2             	setne  %dl
    1d28:	41 0f af d4          	imul   %r12d,%edx
    1d2c:	29 d0                	sub    %edx,%eax
    1d2e:	41 83 fa 67          	cmp    $0x67,%r10d
    1d32:	0f 94 c1             	sete   %cl
    1d35:	31 d2                	xor    %edx,%edx
    1d37:	85 db                	test   %ebx,%ebx
    1d39:	0f 95 c2             	setne  %dl
    1d3c:	21 ca                	and    %ecx,%edx
    1d3e:	29 d0                	sub    %edx,%eax
    1d40:	48 89 ea             	mov    %rbp,%rdx
    1d43:	4c 29 f2             	sub    %r14,%rdx
    1d46:	48 63 c8             	movslq %eax,%rcx
    1d49:	48 c1 fa 02          	sar    $0x2,%rdx
    1d4d:	48 ff ca             	dec    %rdx
    1d50:	48 8d 14 d2          	lea    (%rdx,%rdx,8),%rdx
    1d54:	48 39 d1             	cmp    %rdx,%rcx
    1d57:	0f 8d 19 01 00 00    	jge    1e76 <fmt_fp+0x6aa>
    1d5d:	05 00 40 02 00       	add    $0x24000,%eax
    1d62:	b9 09 00 00 00       	mov    $0x9,%ecx
    1d67:	be 0a 00 00 00       	mov    $0xa,%esi
    1d6c:	99                   	cltd   
    1d6d:	f7 f9                	idiv   %ecx
    1d6f:	48 98                	cltq   
    1d71:	ff c2                	inc    %edx
    1d73:	49 8d 8c 86 04 00 ff 	lea    -0xfffc(%r14,%rax,4),%rcx
    1d7a:	ff 
    1d7b:	83 fa 09             	cmp    $0x9,%edx
    1d7e:	74 07                	je     1d87 <fmt_fp+0x5bb>
    1d80:	6b f6 0a             	imul   $0xa,%esi,%esi
    1d83:	ff c2                	inc    %edx
    1d85:	eb f4                	jmp    1d7b <fmt_fp+0x5af>
    1d87:	8b 39                	mov    (%rcx),%edi
    1d89:	31 d2                	xor    %edx,%edx
    1d8b:	89 f8                	mov    %edi,%eax
    1d8d:	f7 f6                	div    %esi
    1d8f:	85 d2                	test   %edx,%edx
    1d91:	75 0d                	jne    1da0 <fmt_fp+0x5d4>
    1d93:	4c 8d 41 04          	lea    0x4(%rcx),%r8
    1d97:	4c 39 c5             	cmp    %r8,%rbp
    1d9a:	0f 84 bf 00 00 00    	je     1e5f <fmt_fp+0x693>
    1da0:	a8 01                	test   $0x1,%al
    1da2:	75 13                	jne    1db7 <fmt_fp+0x5eb>
    1da4:	81 fe 00 ca 9a 3b    	cmp    $0x3b9aca00,%esi
    1daa:	75 13                	jne    1dbf <fmt_fp+0x5f3>
    1dac:	49 39 c9             	cmp    %rcx,%r9
    1daf:	73 0e                	jae    1dbf <fmt_fp+0x5f3>
    1db1:	f6 41 fc 01          	testb  $0x1,-0x4(%rcx)
    1db5:	74 08                	je     1dbf <fmt_fp+0x5f3>
    1db7:	db 2d 53 2c 00 00    	fldt   0x2c53(%rip)        # 4a10 <states+0x1f0>
    1dbd:	eb 06                	jmp    1dc5 <fmt_fp+0x5f9>
    1dbf:	d9 05 2f 2c 00 00    	flds   0x2c2f(%rip)        # 49f4 <states+0x1d4>
    1dc5:	89 f0                	mov    %esi,%eax
    1dc7:	d1 f8                	sar    %eax
    1dc9:	39 d0                	cmp    %edx,%eax
    1dcb:	77 0f                	ja     1ddc <fmt_fp+0x610>
    1dcd:	75 17                	jne    1de6 <fmt_fp+0x61a>
    1dcf:	48 8d 41 04          	lea    0x4(%rcx),%rax
    1dd3:	d9 e8                	fld1   
    1dd5:	48 39 c5             	cmp    %rax,%rbp
    1dd8:	75 0a                	jne    1de4 <fmt_fp+0x618>
    1dda:	eb 10                	jmp    1dec <fmt_fp+0x620>
    1ddc:	d9 05 16 2c 00 00    	flds   0x2c16(%rip)        # 49f8 <states+0x1d8>
    1de2:	eb 08                	jmp    1dec <fmt_fp+0x620>
    1de4:	dd d8                	fstp   %st(0)
    1de6:	d9 05 10 2c 00 00    	flds   0x2c10(%rip)        # 49fc <states+0x1dc>
    1dec:	83 3c 24 00          	cmpl   $0x0,(%rsp)
    1df0:	74 0f                	je     1e01 <fmt_fp+0x635>
    1df2:	41 80 7d 00 2d       	cmpb   $0x2d,0x0(%r13)
    1df7:	75 08                	jne    1e01 <fmt_fp+0x635>
    1df9:	d9 c9                	fxch   %st(1)
    1dfb:	d9 e0                	fchs   
    1dfd:	d9 c9                	fxch   %st(1)
    1dff:	d9 e0                	fchs   
    1e01:	d8 c1                	fadd   %st(1),%st
    1e03:	29 d7                	sub    %edx,%edi
    1e05:	df e9                	fucomip %st(1),%st
    1e07:	dd d8                	fstp   %st(0)
    1e09:	7a 06                	jp     1e11 <fmt_fp+0x645>
    1e0b:	75 04                	jne    1e11 <fmt_fp+0x645>
    1e0d:	89 39                	mov    %edi,(%rcx)
    1e0f:	eb 4e                	jmp    1e5f <fmt_fp+0x693>
    1e11:	01 fe                	add    %edi,%esi
    1e13:	89 31                	mov    %esi,(%rcx)
    1e15:	81 39 ff c9 9a 3b    	cmpl   $0x3b9ac9ff,(%rcx)
    1e1b:	76 20                	jbe    1e3d <fmt_fp+0x671>
    1e1d:	48 83 e9 04          	sub    $0x4,%rcx
    1e21:	c7 41 04 00 00 00 00 	movl   $0x0,0x4(%rcx)
    1e28:	49 39 c9             	cmp    %rcx,%r9
    1e2b:	76 0c                	jbe    1e39 <fmt_fp+0x66d>
    1e2d:	41 c7 41 fc 00 00 00 	movl   $0x0,-0x4(%r9)
    1e34:	00 
    1e35:	49 83 e9 04          	sub    $0x4,%r9
    1e39:	ff 01                	incl   (%rcx)
    1e3b:	eb d8                	jmp    1e15 <fmt_fp+0x649>
    1e3d:	4d 89 f4             	mov    %r14,%r12
    1e40:	41 8b 11             	mov    (%r9),%edx
    1e43:	b8 0a 00 00 00       	mov    $0xa,%eax
    1e48:	4d 29 cc             	sub    %r9,%r12
    1e4b:	49 c1 fc 02          	sar    $0x2,%r12
    1e4f:	47 8d 24 e4          	lea    (%r12,%r12,8),%r12d
    1e53:	39 c2                	cmp    %eax,%edx
    1e55:	72 08                	jb     1e5f <fmt_fp+0x693>
    1e57:	6b c0 0a             	imul   $0xa,%eax,%eax
    1e5a:	41 ff c4             	inc    %r12d
    1e5d:	eb f4                	jmp    1e53 <fmt_fp+0x687>
    1e5f:	48 83 c1 04          	add    $0x4,%rcx
    1e63:	48 39 cd             	cmp    %rcx,%rbp
    1e66:	48 0f 47 e9          	cmova  %rcx,%rbp
    1e6a:	eb 0a                	jmp    1e76 <fmt_fp+0x6aa>
    1e6c:	83 7d fc 00          	cmpl   $0x0,-0x4(%rbp)
    1e70:	75 09                	jne    1e7b <fmt_fp+0x6af>
    1e72:	48 83 ed 04          	sub    $0x4,%rbp
    1e76:	4c 39 cd             	cmp    %r9,%rbp
    1e79:	77 f1                	ja     1e6c <fmt_fp+0x6a0>
    1e7b:	41 83 fa 67          	cmp    $0x67,%r10d
    1e7f:	0f 85 aa 00 00 00    	jne    1f2f <fmt_fp+0x763>
    1e85:	85 db                	test   %ebx,%ebx
    1e87:	75 05                	jne    1e8e <fmt_fp+0x6c2>
    1e89:	bb 01 00 00 00       	mov    $0x1,%ebx
    1e8e:	44 39 e3             	cmp    %r12d,%ebx
    1e91:	7e 13                	jle    1ea6 <fmt_fp+0x6da>
    1e93:	41 83 fc fc          	cmp    $0xfffffffc,%r12d
    1e97:	7c 0d                	jl     1ea6 <fmt_fp+0x6da>
    1e99:	41 8d 44 24 01       	lea    0x1(%r12),%eax
    1e9e:	ff 4c 24 14          	decl   0x14(%rsp)
    1ea2:	29 c3                	sub    %eax,%ebx
    1ea4:	eb 07                	jmp    1ead <fmt_fp+0x6e1>
    1ea6:	83 6c 24 14 02       	subl   $0x2,0x14(%rsp)
    1eab:	ff cb                	dec    %ebx
    1ead:	f6 44 24 10 08       	testb  $0x8,0x10(%rsp)
    1eb2:	75 7b                	jne    1f2f <fmt_fp+0x763>
    1eb4:	be 09 00 00 00       	mov    $0x9,%esi
    1eb9:	4c 39 cd             	cmp    %r9,%rbp
    1ebc:	76 1f                	jbe    1edd <fmt_fp+0x711>
    1ebe:	8b 7d fc             	mov    -0x4(%rbp),%edi
    1ec1:	85 ff                	test   %edi,%edi
    1ec3:	74 18                	je     1edd <fmt_fp+0x711>
    1ec5:	31 f6                	xor    %esi,%esi
    1ec7:	b9 0a 00 00 00       	mov    $0xa,%ecx
    1ecc:	89 f8                	mov    %edi,%eax
    1ece:	31 d2                	xor    %edx,%edx
    1ed0:	f7 f1                	div    %ecx
    1ed2:	85 d2                	test   %edx,%edx
    1ed4:	75 07                	jne    1edd <fmt_fp+0x711>
    1ed6:	6b c9 0a             	imul   $0xa,%ecx,%ecx
    1ed9:	ff c6                	inc    %esi
    1edb:	eb ef                	jmp    1ecc <fmt_fp+0x700>
    1edd:	48 89 e8             	mov    %rbp,%rax
    1ee0:	8b 54 24 14          	mov    0x14(%rsp),%edx
    1ee4:	49 63 cc             	movslq %r12d,%rcx
    1ee7:	48 63 f6             	movslq %esi,%rsi
    1eea:	4c 29 f0             	sub    %r14,%rax
    1eed:	bf 00 00 00 00       	mov    $0x0,%edi
    1ef2:	48 63 db             	movslq %ebx,%rbx
    1ef5:	48 c1 f8 02          	sar    $0x2,%rax
    1ef9:	83 ca 20             	or     $0x20,%edx
    1efc:	48 ff c8             	dec    %rax
    1eff:	48 8d 04 c0          	lea    (%rax,%rax,8),%rax
    1f03:	48 01 c1             	add    %rax,%rcx
    1f06:	48 29 f1             	sub    %rsi,%rcx
    1f09:	48 0f 48 cf          	cmovs  %rdi,%rcx
    1f0d:	48 39 d9             	cmp    %rbx,%rcx
    1f10:	48 0f 4f cb          	cmovg  %rbx,%rcx
    1f14:	48 29 f0             	sub    %rsi,%rax
    1f17:	be 00 00 00 00       	mov    $0x0,%esi
    1f1c:	48 0f 48 c6          	cmovs  %rsi,%rax
    1f20:	48 39 d8             	cmp    %rbx,%rax
    1f23:	48 0f 4f c3          	cmovg  %rbx,%rax
    1f27:	83 fa 66             	cmp    $0x66,%edx
    1f2a:	89 cb                	mov    %ecx,%ebx
    1f2c:	0f 44 d8             	cmove  %eax,%ebx
    1f2f:	81 fb fd ff ff 7f    	cmp    $0x7ffffffd,%ebx
    1f35:	0f 8f 3a fb ff ff    	jg     1a75 <fmt_fp+0x2a9>
    1f3b:	8b 44 24 10          	mov    0x10(%rsp),%eax
    1f3f:	41 bb ff ff ff 7f    	mov    $0x7fffffff,%r11d
    1f45:	83 e0 08             	and    $0x8,%eax
    1f48:	89 44 24 20          	mov    %eax,0x20(%rsp)
    1f4c:	09 d8                	or     %ebx,%eax
    1f4e:	89 44 24 38          	mov    %eax,0x38(%rsp)
    1f52:	0f 95 c0             	setne  %al
    1f55:	0f b6 c0             	movzbl %al,%eax
    1f58:	44 8d 54 03 01       	lea    0x1(%rbx,%rax,1),%r10d
    1f5d:	8b 44 24 14          	mov    0x14(%rsp),%eax
    1f61:	45 29 d3             	sub    %r10d,%r11d
    1f64:	83 c8 20             	or     $0x20,%eax
    1f67:	89 44 24 2c          	mov    %eax,0x2c(%rsp)
    1f6b:	83 f8 66             	cmp    $0x66,%eax
    1f6e:	75 13                	jne    1f83 <fmt_fp+0x7b7>
    1f70:	45 39 dc             	cmp    %r11d,%r12d
    1f73:	0f 8f fc fa ff ff    	jg     1a75 <fmt_fp+0x2a9>
    1f79:	45 85 e4             	test   %r12d,%r12d
    1f7c:	7e 67                	jle    1fe5 <fmt_fp+0x819>
    1f7e:	45 01 e2             	add    %r12d,%r10d
    1f81:	eb 62                	jmp    1fe5 <fmt_fp+0x819>
    1f83:	44 89 e7             	mov    %r12d,%edi
    1f86:	48 8d 74 24 5b       	lea    0x5b(%rsp),%rsi
    1f8b:	f7 df                	neg    %edi
    1f8d:	41 0f 48 fc          	cmovs  %r12d,%edi
    1f91:	48 63 ff             	movslq %edi,%rdi
    1f94:	e8 2c f7 ff ff       	call   16c5 <fmt_u>
    1f99:	48 89 f2             	mov    %rsi,%rdx
    1f9c:	48 29 c2             	sub    %rax,%rdx
    1f9f:	48 ff ca             	dec    %rdx
    1fa2:	7f 08                	jg     1fac <fmt_fp+0x7e0>
    1fa4:	48 ff c8             	dec    %rax
    1fa7:	c6 00 30             	movb   $0x30,(%rax)
    1faa:	eb ed                	jmp    1f99 <fmt_fp+0x7cd>
    1fac:	48 8d 48 fe          	lea    -0x2(%rax),%rcx
    1fb0:	41 c1 fc 1f          	sar    $0x1f,%r12d
    1fb4:	4d 63 db             	movslq %r11d,%r11
    1fb7:	48 89 4c 24 18       	mov    %rcx,0x18(%rsp)
    1fbc:	41 83 e4 02          	and    $0x2,%r12d
    1fc0:	8a 4c 24 14          	mov    0x14(%rsp),%cl
    1fc4:	41 83 c4 2b          	add    $0x2b,%r12d
    1fc8:	44 88 60 ff          	mov    %r12b,-0x1(%rax)
    1fcc:	88 48 fe             	mov    %cl,-0x2(%rax)
    1fcf:	48 8d 44 24 5b       	lea    0x5b(%rsp),%rax
    1fd4:	48 2b 44 24 18       	sub    0x18(%rsp),%rax
    1fd9:	4c 39 d8             	cmp    %r11,%rax
    1fdc:	0f 8f 93 fa ff ff    	jg     1a75 <fmt_fp+0x2a9>
    1fe2:	41 01 c2             	add    %eax,%r10d
    1fe5:	8b 04 24             	mov    (%rsp),%eax
    1fe8:	4c 89 4c 24 30       	mov    %r9,0x30(%rsp)
    1fed:	f7 d8                	neg    %eax
    1fef:	19 c0                	sbb    %eax,%eax
    1ff1:	05 ff ff ff 7f       	add    $0x7fffffff,%eax
    1ff6:	44 39 d0             	cmp    %r10d,%eax
    1ff9:	0f 8c 76 fa ff ff    	jl     1a75 <fmt_fp+0x2a9>
    1fff:	44 03 14 24          	add    (%rsp),%r10d
    2003:	8b 54 24 28          	mov    0x28(%rsp),%edx
    2007:	be 20 00 00 00       	mov    $0x20,%esi
    200c:	4c 89 ff             	mov    %r15,%rdi
    200f:	44 8b 44 24 10       	mov    0x10(%rsp),%r8d
    2014:	44 89 d1             	mov    %r10d,%ecx
    2017:	44 89 54 24 14       	mov    %r10d,0x14(%rsp)
    201c:	e8 1b f7 ff ff       	call   173c <pad>
    2021:	48 63 14 24          	movslq (%rsp),%rdx
    2025:	4c 89 ee             	mov    %r13,%rsi
    2028:	4c 89 ff             	mov    %r15,%rdi
    202b:	e8 f4 f6 ff ff       	call   1724 <out>
    2030:	8b 4c 24 14          	mov    0x14(%rsp),%ecx
    2034:	8b 54 24 28          	mov    0x28(%rsp),%edx
    2038:	4c 89 ff             	mov    %r15,%rdi
    203b:	44 8b 44 24 10       	mov    0x10(%rsp),%r8d
    2040:	be 30 00 00 00       	mov    $0x30,%esi
    2045:	41 81 f0 00 00 01 00 	xor    $0x10000,%r8d
    204c:	e8 eb f6 ff ff       	call   173c <pad>
    2051:	83 7c 24 2c 66       	cmpl   $0x66,0x2c(%rsp)
    2056:	4c 8b 4c 24 30       	mov    0x30(%rsp),%r9
    205b:	0f 85 3a 01 00 00    	jne    219b <fmt_fp+0x9cf>
    2061:	4d 39 ce             	cmp    %r9,%r14
    2064:	48 8d 44 24 64       	lea    0x64(%rsp),%rax
    2069:	4d 0f 46 ce          	cmovbe %r14,%r9
    206d:	48 89 04 24          	mov    %rax,(%rsp)
    2071:	4d 89 cc             	mov    %r9,%r12
    2074:	4d 89 cd             	mov    %r9,%r13
    2077:	4d 39 f5             	cmp    %r14,%r13
    207a:	77 63                	ja     20df <fmt_fp+0x913>
    207c:	48 8b 34 24          	mov    (%rsp),%rsi
    2080:	41 8b 7d 00          	mov    0x0(%r13),%edi
    2084:	e8 3c f6 ff ff       	call   16c5 <fmt_u>
    2089:	48 8d 54 24 5b       	lea    0x5b(%rsp),%rdx
    208e:	48 89 c6             	mov    %rax,%rsi
    2091:	4d 39 e5             	cmp    %r12,%r13
    2094:	74 24                	je     20ba <fmt_fp+0x8ee>
    2096:	48 39 d0             	cmp    %rdx,%rax
    2099:	76 08                	jbe    20a3 <fmt_fp+0x8d7>
    209b:	48 ff c8             	dec    %rax
    209e:	c6 00 30             	movb   $0x30,(%rax)
    20a1:	eb f3                	jmp    2096 <fmt_fp+0x8ca>
    20a3:	48 89 d0             	mov    %rdx,%rax
    20a6:	48 29 f0             	sub    %rsi,%rax
    20a9:	48 39 d6             	cmp    %rdx,%rsi
    20ac:	ba 00 00 00 00       	mov    $0x0,%edx
    20b1:	48 0f 42 c2          	cmovb  %rdx,%rax
    20b5:	48 01 c6             	add    %rax,%rsi
    20b8:	eb 10                	jmp    20ca <fmt_fp+0x8fe>
    20ba:	48 3b 04 24          	cmp    (%rsp),%rax
    20be:	75 0a                	jne    20ca <fmt_fp+0x8fe>
    20c0:	c6 44 24 63 30       	movb   $0x30,0x63(%rsp)
    20c5:	48 8d 74 24 63       	lea    0x63(%rsp),%rsi
    20ca:	48 8b 14 24          	mov    (%rsp),%rdx
    20ce:	4c 89 ff             	mov    %r15,%rdi
    20d1:	49 83 c5 04          	add    $0x4,%r13
    20d5:	48 29 f2             	sub    %rsi,%rdx
    20d8:	e8 47 f6 ff ff       	call   1724 <out>
    20dd:	eb 98                	jmp    2077 <fmt_fp+0x8ab>
    20df:	49 8d 46 04          	lea    0x4(%r14),%rax
    20e3:	49 8d 54 24 fd       	lea    -0x3(%r12),%rdx
    20e8:	49 ff c6             	inc    %r14
    20eb:	4c 29 e0             	sub    %r12,%rax
    20ee:	48 83 e0 fc          	and    $0xfffffffffffffffc,%rax
    20f2:	49 39 d6             	cmp    %rdx,%r14
    20f5:	ba 00 00 00 00       	mov    $0x0,%edx
    20fa:	48 0f 42 c2          	cmovb  %rdx,%rax
    20fe:	49 01 c4             	add    %rax,%r12
    2101:	83 7c 24 38 00       	cmpl   $0x0,0x38(%rsp)
    2106:	74 74                	je     217c <fmt_fp+0x9b0>
    2108:	ba 01 00 00 00       	mov    $0x1,%edx
    210d:	48 8d 35 df 25 00 00 	lea    0x25df(%rip),%rsi        # 46f3 <all_mask+0x73>
    2114:	4c 89 ff             	mov    %r15,%rdi
    2117:	e8 08 f6 ff ff       	call   1724 <out>
    211c:	4c 8d 6c 24 64       	lea    0x64(%rsp),%r13
    2121:	49 39 ec             	cmp    %rbp,%r12
    2124:	73 58                	jae    217e <fmt_fp+0x9b2>
    2126:	85 db                	test   %ebx,%ebx
    2128:	7e 54                	jle    217e <fmt_fp+0x9b2>
    212a:	41 8b 3c 24          	mov    (%r12),%edi
    212e:	4c 89 ee             	mov    %r13,%rsi
    2131:	e8 8f f5 ff ff       	call   16c5 <fmt_u>
    2136:	48 8d 74 24 5b       	lea    0x5b(%rsp),%rsi
    213b:	48 89 c2             	mov    %rax,%rdx
    213e:	48 39 f2             	cmp    %rsi,%rdx
    2141:	76 08                	jbe    214b <fmt_fp+0x97f>
    2143:	48 ff ca             	dec    %rdx
    2146:	c6 02 30             	movb   $0x30,(%rdx)
    2149:	eb f3                	jmp    213e <fmt_fp+0x972>
    214b:	48 89 f1             	mov    %rsi,%rcx
    214e:	31 d2                	xor    %edx,%edx
    2150:	4c 89 ff             	mov    %r15,%rdi
    2153:	48 29 c1             	sub    %rax,%rcx
    2156:	48 39 f0             	cmp    %rsi,%rax
    2159:	48 0f 42 ca          	cmovb  %rdx,%rcx
    215d:	ba 09 00 00 00       	mov    $0x9,%edx
    2162:	39 d3                	cmp    %edx,%ebx
    2164:	0f 4e d3             	cmovle %ebx,%edx
    2167:	48 8d 34 08          	lea    (%rax,%rcx,1),%rsi
    216b:	49 83 c4 04          	add    $0x4,%r12
    216f:	83 eb 09             	sub    $0x9,%ebx
    2172:	48 63 d2             	movslq %edx,%rdx
    2175:	e8 aa f5 ff ff       	call   1724 <out>
    217a:	eb a5                	jmp    2121 <fmt_fp+0x955>
    217c:	31 db                	xor    %ebx,%ebx
    217e:	8d 53 09             	lea    0x9(%rbx),%edx
    2181:	45 31 c0             	xor    %r8d,%r8d
    2184:	b9 09 00 00 00       	mov    $0x9,%ecx
    2189:	be 30 00 00 00       	mov    $0x30,%esi
    218e:	4c 89 ff             	mov    %r15,%rdi
    2191:	e8 a6 f5 ff ff       	call   173c <pad>
    2196:	e9 01 01 00 00       	jmp    229c <fmt_fp+0xad0>
    219b:	4c 39 cd             	cmp    %r9,%rbp
    219e:	77 04                	ja     21a4 <fmt_fp+0x9d8>
    21a0:	49 8d 69 04          	lea    0x4(%r9),%rbp
    21a4:	4d 89 ce             	mov    %r9,%r14
    21a7:	49 39 ee             	cmp    %rbp,%r14
    21aa:	0f 83 bd 00 00 00    	jae    226d <fmt_fp+0xaa1>
    21b0:	85 db                	test   %ebx,%ebx
    21b2:	0f 88 b5 00 00 00    	js     226d <fmt_fp+0xaa1>
    21b8:	41 8b 3e             	mov    (%r14),%edi
    21bb:	4c 8d 64 24 64       	lea    0x64(%rsp),%r12
    21c0:	4c 89 e6             	mov    %r12,%rsi
    21c3:	e8 fd f4 ff ff       	call   16c5 <fmt_u>
    21c8:	48 89 c6             	mov    %rax,%rsi
    21cb:	4c 39 e0             	cmp    %r12,%rax
    21ce:	75 0a                	jne    21da <fmt_fp+0xa0e>
    21d0:	c6 44 24 63 30       	movb   $0x30,0x63(%rsp)
    21d5:	48 8d 74 24 63       	lea    0x63(%rsp),%rsi
    21da:	48 89 f0             	mov    %rsi,%rax
    21dd:	48 8d 54 24 5b       	lea    0x5b(%rsp),%rdx
    21e2:	4d 39 ce             	cmp    %r9,%r14
    21e5:	74 21                	je     2208 <fmt_fp+0xa3c>
    21e7:	48 39 d0             	cmp    %rdx,%rax
    21ea:	76 08                	jbe    21f4 <fmt_fp+0xa28>
    21ec:	48 ff c8             	dec    %rax
    21ef:	c6 00 30             	movb   $0x30,(%rax)
    21f2:	eb f3                	jmp    21e7 <fmt_fp+0xa1b>
    21f4:	49 89 d5             	mov    %rdx,%r13
    21f7:	31 c0                	xor    %eax,%eax
    21f9:	49 29 f5             	sub    %rsi,%r13
    21fc:	48 39 d6             	cmp    %rdx,%rsi
    21ff:	4c 0f 42 e8          	cmovb  %rax,%r13
    2203:	49 01 f5             	add    %rsi,%r13
    2206:	eb 39                	jmp    2241 <fmt_fp+0xa75>
    2208:	ba 01 00 00 00       	mov    $0x1,%edx
    220d:	4c 89 ff             	mov    %r15,%rdi
    2210:	4c 89 0c 24          	mov    %r9,(%rsp)
    2214:	4c 8d 6e 01          	lea    0x1(%rsi),%r13
    2218:	e8 07 f5 ff ff       	call   1724 <out>
    221d:	8b 44 24 20          	mov    0x20(%rsp),%eax
    2221:	4c 8b 0c 24          	mov    (%rsp),%r9
    2225:	09 d8                	or     %ebx,%eax
    2227:	74 18                	je     2241 <fmt_fp+0xa75>
    2229:	ba 01 00 00 00       	mov    $0x1,%edx
    222e:	48 8d 35 be 24 00 00 	lea    0x24be(%rip),%rsi        # 46f3 <all_mask+0x73>
    2235:	4c 89 ff             	mov    %r15,%rdi
    2238:	e8 e7 f4 ff ff       	call   1724 <out>
    223d:	4c 8b 0c 24          	mov    (%rsp),%r9
    2241:	4d 29 ec             	sub    %r13,%r12
    2244:	48 63 d3             	movslq %ebx,%rdx
    2247:	4c 89 ee             	mov    %r13,%rsi
    224a:	4c 89 ff             	mov    %r15,%rdi
    224d:	4c 39 e2             	cmp    %r12,%rdx
    2250:	4c 89 0c 24          	mov    %r9,(%rsp)
    2254:	49 0f 4f d4          	cmovg  %r12,%rdx
    2258:	44 29 e3             	sub    %r12d,%ebx
    225b:	49 83 c6 04          	add    $0x4,%r14
    225f:	e8 c0 f4 ff ff       	call   1724 <out>
    2264:	4c 8b 0c 24          	mov    (%rsp),%r9
    2268:	e9 3a ff ff ff       	jmp    21a7 <fmt_fp+0x9db>
    226d:	8d 53 12             	lea    0x12(%rbx),%edx
    2270:	be 30 00 00 00       	mov    $0x30,%esi
    2275:	4c 89 ff             	mov    %r15,%rdi
    2278:	45 31 c0             	xor    %r8d,%r8d
    227b:	b9 12 00 00 00       	mov    $0x12,%ecx
    2280:	e8 b7 f4 ff ff       	call   173c <pad>
    2285:	48 8b 74 24 18       	mov    0x18(%rsp),%rsi
    228a:	48 8d 54 24 5b       	lea    0x5b(%rsp),%rdx
    228f:	4c 89 ff             	mov    %r15,%rdi
    2292:	48 2b 54 24 18       	sub    0x18(%rsp),%rdx
    2297:	e8 88 f4 ff ff       	call   1724 <out>
    229c:	8b 4c 24 14          	mov    0x14(%rsp),%ecx
    22a0:	8b 54 24 28          	mov    0x28(%rsp),%edx
    22a4:	be 20 00 00 00       	mov    $0x20,%esi
    22a9:	4c 89 ff             	mov    %r15,%rdi
    22ac:	44 8b 44 24 10       	mov    0x10(%rsp),%r8d
    22b1:	41 81 f0 00 20 00 00 	xor    $0x2000,%r8d
    22b8:	e8 7f f4 ff ff       	call   173c <pad>
    22bd:	8b 5c 24 28          	mov    0x28(%rsp),%ebx
    22c1:	39 5c 24 14          	cmp    %ebx,0x14(%rsp)
    22c5:	89 d8                	mov    %ebx,%eax
    22c7:	0f 4d 44 24 14       	cmovge 0x14(%rsp),%eax
    22cc:	48 81 c4 28 1d 00 00 	add    $0x1d28,%rsp
    22d3:	5b                   	pop    %rbx
    22d4:	5d                   	pop    %rbp
    22d5:	41 5c                	pop    %r12
    22d7:	41 5d                	pop    %r13
    22d9:	41 5e                	pop    %r14
    22db:	41 5f                	pop    %r15
    22dd:	c3                   	ret    

00000000000022de <printf_core>:
    22de:	41 57                	push   %r15
    22e0:	41 56                	push   %r14
    22e2:	41 55                	push   %r13
    22e4:	49 89 fd             	mov    %rdi,%r13
    22e7:	41 54                	push   %r12
    22e9:	55                   	push   %rbp
    22ea:	53                   	push   %rbx
    22eb:	31 db                	xor    %ebx,%ebx
    22ed:	48 81 ec a8 00 00 00 	sub    $0xa8,%rsp
    22f4:	48 89 54 24 10       	mov    %rdx,0x10(%rsp)
    22f9:	48 89 4c 24 28       	mov    %rcx,0x28(%rsp)
    22fe:	4c 89 44 24 18       	mov    %r8,0x18(%rsp)
    2303:	48 89 74 24 50       	mov    %rsi,0x50(%rsp)
    2308:	c7 44 24 08 00 00 00 	movl   $0x0,0x8(%rsp)
    230f:	00 
    2310:	c7 44 24 30 00 00 00 	movl   $0x0,0x30(%rsp)
    2317:	00 
    2318:	4c 8b 7c 24 50       	mov    0x50(%rsp),%r15
    231d:	01 5c 24 08          	add    %ebx,0x8(%rsp)
    2321:	41 80 3f 00          	cmpb   $0x0,(%r15)
    2325:	0f 84 ab 07 00 00    	je     2ad6 <printf_core+0x7f8>
    232b:	48 8b 44 24 50       	mov    0x50(%rsp),%rax
    2330:	8a 10                	mov    (%rax),%dl
    2332:	84 d2                	test   %dl,%dl
    2334:	74 21                	je     2357 <printf_core+0x79>
    2336:	80 fa 25             	cmp    $0x25,%dl
    2339:	74 1c                	je     2357 <printf_core+0x79>
    233b:	48 ff c0             	inc    %rax
    233e:	48 89 44 24 50       	mov    %rax,0x50(%rsp)
    2343:	eb e6                	jmp    232b <printf_core+0x4d>
    2345:	80 7a 01 25          	cmpb   $0x25,0x1(%rdx)
    2349:	75 16                	jne    2361 <printf_core+0x83>
    234b:	48 83 c2 02          	add    $0x2,%rdx
    234f:	48 ff c0             	inc    %rax
    2352:	48 89 54 24 50       	mov    %rdx,0x50(%rsp)
    2357:	48 8b 54 24 50       	mov    0x50(%rsp),%rdx
    235c:	80 3a 25             	cmpb   $0x25,(%rdx)
    235f:	74 e4                	je     2345 <printf_core+0x67>
    2361:	4c 29 f8             	sub    %r15,%rax
    2364:	48 89 c5             	mov    %rax,%rbp
    2367:	b8 ff ff ff 7f       	mov    $0x7fffffff,%eax
    236c:	2b 44 24 08          	sub    0x8(%rsp),%eax
    2370:	89 44 24 34          	mov    %eax,0x34(%rsp)
    2374:	48 98                	cltq   
    2376:	48 39 c5             	cmp    %rax,%rbp
    2379:	0f 8f c4 07 00 00    	jg     2b43 <printf_core+0x865>
    237f:	89 eb                	mov    %ebp,%ebx
    2381:	4d 85 ed             	test   %r13,%r13
    2384:	74 0e                	je     2394 <printf_core+0xb6>
    2386:	48 63 d5             	movslq %ebp,%rdx
    2389:	4c 89 fe             	mov    %r15,%rsi
    238c:	4c 89 ef             	mov    %r13,%rdi
    238f:	e8 90 f3 ff ff       	call   1724 <out>
    2394:	85 ed                	test   %ebp,%ebp
    2396:	74 0f                	je     23a7 <printf_core+0xc9>
    2398:	39 5c 24 34          	cmp    %ebx,0x34(%rsp)
    239c:	0f 8d 76 ff ff ff    	jge    2318 <printf_core+0x3a>
    23a2:	e9 9c 07 00 00       	jmp    2b43 <printf_core+0x865>
    23a7:	48 8b 44 24 50       	mov    0x50(%rsp),%rax
    23ac:	44 0f be 48 01       	movsbl 0x1(%rax),%r9d
    23b1:	41 83 e9 30          	sub    $0x30,%r9d
    23b5:	41 83 f9 09          	cmp    $0x9,%r9d
    23b9:	77 14                	ja     23cf <printf_core+0xf1>
    23bb:	80 78 02 24          	cmpb   $0x24,0x2(%rax)
    23bf:	75 0e                	jne    23cf <printf_core+0xf1>
    23c1:	c7 44 24 30 01 00 00 	movl   $0x1,0x30(%rsp)
    23c8:	00 
    23c9:	48 83 c0 03          	add    $0x3,%rax
    23cd:	eb 07                	jmp    23d6 <printf_core+0xf8>
    23cf:	48 ff c0             	inc    %rax
    23d2:	41 83 c9 ff          	or     $0xffffffff,%r9d
    23d6:	45 31 e4             	xor    %r12d,%r12d
    23d9:	be 89 28 01 00       	mov    $0x12889,%esi
    23de:	bf 01 00 00 00       	mov    $0x1,%edi
    23e3:	48 89 44 24 50       	mov    %rax,0x50(%rsp)
    23e8:	0f be 08             	movsbl (%rax),%ecx
    23eb:	89 ca                	mov    %ecx,%edx
    23ed:	83 e9 20             	sub    $0x20,%ecx
    23f0:	83 f9 1f             	cmp    $0x1f,%ecx
    23f3:	77 18                	ja     240d <printf_core+0x12f>
    23f5:	41 89 f0             	mov    %esi,%r8d
    23f8:	41 d3 e8             	shr    %cl,%r8d
    23fb:	41 80 e0 01          	and    $0x1,%r8b
    23ff:	74 0c                	je     240d <printf_core+0x12f>
    2401:	89 fa                	mov    %edi,%edx
    2403:	48 ff c0             	inc    %rax
    2406:	d3 e2                	shl    %cl,%edx
    2408:	41 09 d4             	or     %edx,%r12d
    240b:	eb d6                	jmp    23e3 <printf_core+0x105>
    240d:	80 fa 2a             	cmp    $0x2a,%dl
    2410:	0f 85 c3 00 00 00    	jne    24d9 <printf_core+0x1fb>
    2416:	48 0f be 48 01       	movsbq 0x1(%rax),%rcx
    241b:	48 89 ca             	mov    %rcx,%rdx
    241e:	83 e9 30             	sub    $0x30,%ecx
    2421:	83 f9 09             	cmp    $0x9,%ecx
    2424:	77 3d                	ja     2463 <printf_core+0x185>
    2426:	80 78 02 24          	cmpb   $0x24,0x2(%rax)
    242a:	75 37                	jne    2463 <printf_core+0x185>
    242c:	48 8b 74 24 18       	mov    0x18(%rsp),%rsi
    2431:	48 8b 4c 24 28       	mov    0x28(%rsp),%rcx
    2436:	c7 44 24 30 01 00 00 	movl   $0x1,0x30(%rsp)
    243d:	00 
    243e:	48 83 c0 03          	add    $0x3,%rax
    2442:	c7 84 96 40 ff ff ff 	movl   $0xa,-0xc0(%rsi,%rdx,4)
    2449:	0a 00 00 00 
    244d:	48 0f be 50 fe       	movsbq -0x2(%rax),%rdx
    2452:	48 c1 e2 04          	shl    $0x4,%rdx
    2456:	8b bc 11 00 fd ff ff 	mov    -0x300(%rcx,%rdx,1),%edi
    245d:	89 7c 24 0c          	mov    %edi,0xc(%rsp)
    2461:	eb 5d                	jmp    24c0 <printf_core+0x1e2>
    2463:	83 7c 24 30 00       	cmpl   $0x0,0x30(%rsp)
    2468:	74 10                	je     247a <printf_core+0x19c>
    246a:	e8 ff 0f 00 00       	call   346e <__errno_location>
    246f:	c7 00 16 00 00 00    	movl   $0x16,(%rax)
    2475:	e9 d4 06 00 00       	jmp    2b4e <printf_core+0x870>
    247a:	89 6c 24 0c          	mov    %ebp,0xc(%rsp)
    247e:	4d 85 ed             	test   %r13,%r13
    2481:	74 3a                	je     24bd <printf_core+0x1df>
    2483:	48 8b 4c 24 10       	mov    0x10(%rsp),%rcx
    2488:	8b 09                	mov    (%rcx),%ecx
    248a:	83 f9 2f             	cmp    $0x2f,%ecx
    248d:	77 12                	ja     24a1 <printf_core+0x1c3>
    248f:	48 8b 7c 24 10       	mov    0x10(%rsp),%rdi
    2494:	89 ca                	mov    %ecx,%edx
    2496:	83 c1 08             	add    $0x8,%ecx
    2499:	89 0f                	mov    %ecx,(%rdi)
    249b:	48 03 57 10          	add    0x10(%rdi),%rdx
    249f:	eb 16                	jmp    24b7 <printf_core+0x1d9>
    24a1:	48 8b 4c 24 10       	mov    0x10(%rsp),%rcx
    24a6:	48 8b 7c 24 10       	mov    0x10(%rsp),%rdi
    24ab:	48 8b 51 08          	mov    0x8(%rcx),%rdx
    24af:	48 8d 4a 08          	lea    0x8(%rdx),%rcx
    24b3:	48 89 4f 08          	mov    %rcx,0x8(%rdi)
    24b7:	8b 32                	mov    (%rdx),%esi
    24b9:	89 74 24 0c          	mov    %esi,0xc(%rsp)
    24bd:	48 ff c0             	inc    %rax
    24c0:	83 7c 24 0c 00       	cmpl   $0x0,0xc(%rsp)
    24c5:	48 89 44 24 50       	mov    %rax,0x50(%rsp)
    24ca:	79 23                	jns    24ef <printf_core+0x211>
    24cc:	f7 5c 24 0c          	negl   0xc(%rsp)
    24d0:	41 81 cc 00 20 00 00 	or     $0x2000,%r12d
    24d7:	eb 16                	jmp    24ef <printf_core+0x211>
    24d9:	48 8d 7c 24 50       	lea    0x50(%rsp),%rdi
    24de:	e8 06 f2 ff ff       	call   16e9 <getint>
    24e3:	89 44 24 0c          	mov    %eax,0xc(%rsp)
    24e7:	85 c0                	test   %eax,%eax
    24e9:	0f 88 54 06 00 00    	js     2b43 <printf_core+0x865>
    24ef:	48 8b 44 24 50       	mov    0x50(%rsp),%rax
    24f4:	80 38 2e             	cmpb   $0x2e,(%rax)
    24f7:	0f 85 c8 00 00 00    	jne    25c5 <printf_core+0x2e7>
    24fd:	80 78 01 2a          	cmpb   $0x2a,0x1(%rax)
    2501:	0f 85 a1 00 00 00    	jne    25a8 <printf_core+0x2ca>
    2507:	48 0f be 48 02       	movsbq 0x2(%rax),%rcx
    250c:	48 89 ca             	mov    %rcx,%rdx
    250f:	83 e9 30             	sub    $0x30,%ecx
    2512:	83 f9 09             	cmp    $0x9,%ecx
    2515:	77 32                	ja     2549 <printf_core+0x26b>
    2517:	80 78 03 24          	cmpb   $0x24,0x3(%rax)
    251b:	75 2c                	jne    2549 <printf_core+0x26b>
    251d:	48 8b 4c 24 18       	mov    0x18(%rsp),%rcx
    2522:	48 8b 7c 24 28       	mov    0x28(%rsp),%rdi
    2527:	48 83 c0 04          	add    $0x4,%rax
    252b:	c7 84 91 40 ff ff ff 	movl   $0xa,-0xc0(%rcx,%rdx,4)
    2532:	0a 00 00 00 
    2536:	48 0f be 50 fe       	movsbq -0x2(%rax),%rdx
    253b:	48 c1 e2 04          	shl    $0x4,%rdx
    253f:	4c 63 b4 17 00 fd ff 	movslq -0x300(%rdi,%rdx,1),%r14
    2546:	ff 
    2547:	eb 4e                	jmp    2597 <printf_core+0x2b9>
    2549:	83 7c 24 30 00       	cmpl   $0x0,0x30(%rsp)
    254e:	0f 85 16 ff ff ff    	jne    246a <printf_core+0x18c>
    2554:	4c 63 f5             	movslq %ebp,%r14
    2557:	4d 85 ed             	test   %r13,%r13
    255a:	74 37                	je     2593 <printf_core+0x2b5>
    255c:	48 8b 4c 24 10       	mov    0x10(%rsp),%rcx
    2561:	8b 09                	mov    (%rcx),%ecx
    2563:	83 f9 2f             	cmp    $0x2f,%ecx
    2566:	77 12                	ja     257a <printf_core+0x29c>
    2568:	48 8b 7c 24 10       	mov    0x10(%rsp),%rdi
    256d:	89 ca                	mov    %ecx,%edx
    256f:	83 c1 08             	add    $0x8,%ecx
    2572:	89 0f                	mov    %ecx,(%rdi)
    2574:	48 03 57 10          	add    0x10(%rdi),%rdx
    2578:	eb 16                	jmp    2590 <printf_core+0x2b2>
    257a:	48 8b 4c 24 10       	mov    0x10(%rsp),%rcx
    257f:	48 8b 7c 24 10       	mov    0x10(%rsp),%rdi
    2584:	48 8b 51 08          	mov    0x8(%rcx),%rdx
    2588:	48 8d 4a 08          	lea    0x8(%rdx),%rcx
    258c:	48 89 4f 08          	mov    %rcx,0x8(%rdi)
    2590:	4c 63 32             	movslq (%rdx),%r14
    2593:	48 83 c0 02          	add    $0x2,%rax
    2597:	45 89 f2             	mov    %r14d,%r10d
    259a:	48 89 44 24 50       	mov    %rax,0x50(%rsp)
    259f:	41 f7 d2             	not    %r10d
    25a2:	41 c1 ea 1f          	shr    $0x1f,%r10d
    25a6:	eb 24                	jmp    25cc <printf_core+0x2ee>
    25a8:	48 ff c0             	inc    %rax
    25ab:	48 8d 7c 24 50       	lea    0x50(%rsp),%rdi
    25b0:	41 ba 01 00 00 00    	mov    $0x1,%r10d
    25b6:	48 89 44 24 50       	mov    %rax,0x50(%rsp)
    25bb:	e8 29 f1 ff ff       	call   16e9 <getint>
    25c0:	4c 63 f0             	movslq %eax,%r14
    25c3:	eb 07                	jmp    25cc <printf_core+0x2ee>
    25c5:	41 89 ea             	mov    %ebp,%r10d
    25c8:	49 83 ce ff          	or     $0xffffffffffffffff,%r14
    25cc:	45 31 db             	xor    %r11d,%r11d
    25cf:	4c 8b 44 24 50       	mov    0x50(%rsp),%r8
    25d4:	41 0f be 00          	movsbl (%r8),%eax
    25d8:	83 e8 41             	sub    $0x41,%eax
    25db:	83 f8 39             	cmp    $0x39,%eax
    25de:	0f 87 86 fe ff ff    	ja     246a <printf_core+0x18c>
    25e4:	49 8d 40 01          	lea    0x1(%r8),%rax
    25e8:	44 89 da             	mov    %r11d,%edx
    25eb:	48 8d 35 2e 22 00 00 	lea    0x222e(%rip),%rsi        # 4820 <states>
    25f2:	48 89 44 24 50       	mov    %rax,0x50(%rsp)
    25f7:	48 6b d2 3a          	imul   $0x3a,%rdx,%rdx
    25fb:	41 0f be 00          	movsbl (%r8),%eax
    25ff:	83 e8 41             	sub    $0x41,%eax
    2602:	48 98                	cltq   
    2604:	48 01 f2             	add    %rsi,%rdx
    2607:	0f b6 34 02          	movzbl (%rdx,%rax,1),%esi
    260b:	8d 46 ff             	lea    -0x1(%rsi),%eax
    260e:	83 f8 07             	cmp    $0x7,%eax
    2611:	77 05                	ja     2618 <printf_core+0x33a>
    2613:	41 89 f3             	mov    %esi,%r11d
    2616:	eb b7                	jmp    25cf <printf_core+0x2f1>
    2618:	85 f6                	test   %esi,%esi
    261a:	0f 84 4a fe ff ff    	je     246a <printf_core+0x18c>
    2620:	83 fe 1b             	cmp    $0x1b,%esi
    2623:	75 0a                	jne    262f <printf_core+0x351>
    2625:	41 ff c1             	inc    %r9d
    2628:	74 4f                	je     2679 <printf_core+0x39b>
    262a:	e9 3b fe ff ff       	jmp    246a <printf_core+0x18c>
    262f:	41 83 f9 ff          	cmp    $0xffffffff,%r9d
    2633:	74 21                	je     2656 <printf_core+0x378>
    2635:	48 8b 44 24 18       	mov    0x18(%rsp),%rax
    263a:	4d 63 c9             	movslq %r9d,%r9
    263d:	42 89 34 88          	mov    %esi,(%rax,%r9,4)
    2641:	48 8b 44 24 28       	mov    0x28(%rsp),%rax
    2646:	49 c1 e1 04          	shl    $0x4,%r9
    264a:	42 0f 28 04 08       	movaps (%rax,%r9,1),%xmm0
    264f:	0f 29 44 24 60       	movaps %xmm0,0x60(%rsp)
    2654:	eb 23                	jmp    2679 <printf_core+0x39b>
    2656:	4d 85 ed             	test   %r13,%r13
    2659:	75 0d                	jne    2668 <printf_core+0x38a>
    265b:	c7 44 24 08 00 00 00 	movl   $0x0,0x8(%rsp)
    2662:	00 
    2663:	e9 7d 05 00 00       	jmp    2be5 <printf_core+0x907>
    2668:	48 8b 54 24 10       	mov    0x10(%rsp),%rdx
    266d:	48 8d 7c 24 60       	lea    0x60(%rsp),%rdi
    2672:	e8 da ee ff ff       	call   1551 <pop_arg>
    2677:	eb 09                	jmp    2682 <printf_core+0x3a4>
    2679:	4d 85 ed             	test   %r13,%r13
    267c:	0f 84 96 fc ff ff    	je     2318 <printf_core+0x3a>
    2682:	45 0f be 00          	movsbl (%r8),%r8d
    2686:	44 89 c0             	mov    %r8d,%eax
    2689:	45 85 db             	test   %r11d,%r11d
    268c:	74 12                	je     26a0 <printf_core+0x3c2>
    268e:	44 89 c2             	mov    %r8d,%edx
    2691:	83 e2 0f             	and    $0xf,%edx
    2694:	80 fa 03             	cmp    $0x3,%dl
    2697:	75 07                	jne    26a0 <printf_core+0x3c2>
    2699:	83 e0 df             	and    $0xffffffdf,%eax
    269c:	44 0f be c0          	movsbl %al,%r8d
    26a0:	41 0f ba e4 0d       	bt     $0xd,%r12d
    26a5:	73 07                	jae    26ae <printf_core+0x3d0>
    26a7:	41 81 e4 ff ff fe ff 	and    $0xfffeffff,%r12d
    26ae:	41 8d 40 bf          	lea    -0x41(%r8),%eax
    26b2:	83 f8 37             	cmp    $0x37,%eax
    26b5:	0f 87 26 03 00 00    	ja     29e1 <printf_core+0x703>
    26bb:	48 8d 15 46 20 00 00 	lea    0x2046(%rip),%rdx        # 4708 <all_mask+0x88>
    26c2:	48 63 04 82          	movslq (%rdx,%rax,4),%rax
    26c6:	48 01 d0             	add    %rdx,%rax
    26c9:	ff e0                	jmp    *%rax
    26cb:	41 83 fb 07          	cmp    $0x7,%r11d
    26cf:	0f 87 c3 fc ff ff    	ja     2398 <printf_core+0xba>
    26d5:	48 8d 15 0c 21 00 00 	lea    0x210c(%rip),%rdx        # 47e8 <all_mask+0x168>
    26dc:	4a 63 04 9a          	movslq (%rdx,%r11,4),%rax
    26e0:	48 01 d0             	add    %rdx,%rax
    26e3:	ff e0                	jmp    *%rax
    26e5:	48 8b 44 24 60       	mov    0x60(%rsp),%rax
    26ea:	8b 4c 24 08          	mov    0x8(%rsp),%ecx
    26ee:	89 08                	mov    %ecx,(%rax)
    26f0:	e9 23 fc ff ff       	jmp    2318 <printf_core+0x3a>
    26f5:	48 8b 44 24 60       	mov    0x60(%rsp),%rax
    26fa:	8b 7c 24 08          	mov    0x8(%rsp),%edi
    26fe:	66 89 38             	mov    %di,(%rax)
    2701:	e9 12 fc ff ff       	jmp    2318 <printf_core+0x3a>
    2706:	48 8b 44 24 60       	mov    0x60(%rsp),%rax
    270b:	40 8a 74 24 08       	mov    0x8(%rsp),%sil
    2710:	40 88 30             	mov    %sil,(%rax)
    2713:	e9 00 fc ff ff       	jmp    2318 <printf_core+0x3a>
    2718:	48 63 44 24 08       	movslq 0x8(%rsp),%rax
    271d:	48 8b 54 24 60       	mov    0x60(%rsp),%rdx
    2722:	48 89 02             	mov    %rax,(%rdx)
    2725:	e9 ee fb ff ff       	jmp    2318 <printf_core+0x3a>
    272a:	b8 10 00 00 00       	mov    $0x10,%eax
    272f:	41 b8 78 00 00 00    	mov    $0x78,%r8d
    2735:	41 39 c6             	cmp    %eax,%r14d
    2738:	44 0f 42 f0          	cmovb  %eax,%r14d
    273c:	41 83 cc 08          	or     $0x8,%r12d
    2740:	48 8b 54 24 60       	mov    0x60(%rsp),%rdx
    2745:	44 89 c1             	mov    %r8d,%ecx
    2748:	4c 8d bc 24 a0 00 00 	lea    0xa0(%rsp),%r15
    274f:	00 
    2750:	83 e1 20             	and    $0x20,%ecx
    2753:	48 8d 35 b6 20 00 00 	lea    0x20b6(%rip),%rsi        # 4810 <xdigits>
    275a:	48 89 d0             	mov    %rdx,%rax
    275d:	48 85 c0             	test   %rax,%rax
    2760:	74 17                	je     2779 <printf_core+0x49b>
    2762:	48 89 c7             	mov    %rax,%rdi
    2765:	49 ff cf             	dec    %r15
    2768:	48 c1 e8 04          	shr    $0x4,%rax
    276c:	83 e7 0f             	and    $0xf,%edi
    276f:	8a 1c 3e             	mov    (%rsi,%rdi,1),%bl
    2772:	09 cb                	or     %ecx,%ebx
    2774:	41 88 1f             	mov    %bl,(%r15)
    2777:	eb e4                	jmp    275d <printf_core+0x47f>
    2779:	89 eb                	mov    %ebp,%ebx
    277b:	4c 8d 0d 73 1f 00 00 	lea    0x1f73(%rip),%r9        # 46f5 <all_mask+0x75>
    2782:	48 85 d2             	test   %rdx,%rdx
    2785:	0f 84 cb 00 00 00    	je     2856 <printf_core+0x578>
    278b:	41 f6 c4 08          	test   $0x8,%r12b
    278f:	0f 84 c1 00 00 00    	je     2856 <printf_core+0x578>
    2795:	41 c1 f8 04          	sar    $0x4,%r8d
    2799:	bb 02 00 00 00       	mov    $0x2,%ebx
    279e:	4d 63 c0             	movslq %r8d,%r8
    27a1:	4d 01 c1             	add    %r8,%r9
    27a4:	e9 ad 00 00 00       	jmp    2856 <printf_core+0x578>
    27a9:	48 8b 44 24 60       	mov    0x60(%rsp),%rax
    27ae:	4c 8d bc 24 a0 00 00 	lea    0xa0(%rsp),%r15
    27b5:	00 
    27b6:	48 85 c0             	test   %rax,%rax
    27b9:	74 14                	je     27cf <printf_core+0x4f1>
    27bb:	89 c2                	mov    %eax,%edx
    27bd:	49 ff cf             	dec    %r15
    27c0:	48 c1 e8 03          	shr    $0x3,%rax
    27c4:	83 e2 07             	and    $0x7,%edx
    27c7:	83 c2 30             	add    $0x30,%edx
    27ca:	41 88 17             	mov    %dl,(%r15)
    27cd:	eb e7                	jmp    27b6 <printf_core+0x4d8>
    27cf:	89 eb                	mov    %ebp,%ebx
    27d1:	4c 8d 0d 1d 1f 00 00 	lea    0x1f1d(%rip),%r9        # 46f5 <all_mask+0x75>
    27d8:	41 f6 c4 08          	test   $0x8,%r12b
    27dc:	74 78                	je     2856 <printf_core+0x578>
    27de:	48 8d 94 24 a0 00 00 	lea    0xa0(%rsp),%rdx
    27e5:	00 
    27e6:	49 63 c6             	movslq %r14d,%rax
    27e9:	4c 29 fa             	sub    %r15,%rdx
    27ec:	48 39 c2             	cmp    %rax,%rdx
    27ef:	7c 65                	jl     2856 <printf_core+0x578>
    27f1:	44 8d 72 01          	lea    0x1(%rdx),%r14d
    27f5:	eb 5f                	jmp    2856 <printf_core+0x578>
    27f7:	48 8b 44 24 60       	mov    0x60(%rsp),%rax
    27fc:	48 85 c0             	test   %rax,%rax
    27ff:	79 0f                	jns    2810 <printf_core+0x532>
    2801:	48 f7 d8             	neg    %rax
    2804:	bb 01 00 00 00       	mov    $0x1,%ebx
    2809:	48 89 44 24 60       	mov    %rax,0x60(%rsp)
    280e:	eb 2a                	jmp    283a <printf_core+0x55c>
    2810:	41 0f ba e4 0b       	bt     $0xb,%r12d
    2815:	bb 01 00 00 00       	mov    $0x1,%ebx
    281a:	4c 8d 0d d5 1e 00 00 	lea    0x1ed5(%rip),%r9        # 46f6 <all_mask+0x76>
    2821:	72 1e                	jb     2841 <printf_core+0x563>
    2823:	41 f6 c4 01          	test   $0x1,%r12b
    2827:	49 8d 41 ff          	lea    -0x1(%r9),%rax
    282b:	4d 8d 49 01          	lea    0x1(%r9),%r9
    282f:	0f 44 dd             	cmove  %ebp,%ebx
    2832:	4c 0f 44 c8          	cmove  %rax,%r9
    2836:	eb 09                	jmp    2841 <printf_core+0x563>
    2838:	89 eb                	mov    %ebp,%ebx
    283a:	4c 8d 0d b4 1e 00 00 	lea    0x1eb4(%rip),%r9        # 46f5 <all_mask+0x75>
    2841:	48 8b 7c 24 60       	mov    0x60(%rsp),%rdi
    2846:	48 8d b4 24 a0 00 00 	lea    0xa0(%rsp),%rsi
    284d:	00 
    284e:	e8 72 ee ff ff       	call   16c5 <fmt_u>
    2853:	49 89 c7             	mov    %rax,%r15
    2856:	45 85 f6             	test   %r14d,%r14d
    2859:	79 0a                	jns    2865 <printf_core+0x587>
    285b:	41 f6 c2 01          	test   $0x1,%r10b
    285f:	0f 85 de 02 00 00    	jne    2b43 <printf_core+0x865>
    2865:	45 85 d2             	test   %r10d,%r10d
    2868:	74 07                	je     2871 <printf_core+0x593>
    286a:	41 81 e4 ff ff fe ff 	and    $0xfffeffff,%r12d
    2871:	48 83 7c 24 60 00    	cmpq   $0x0,0x60(%rsp)
    2877:	0f 94 c2             	sete   %dl
    287a:	45 85 f6             	test   %r14d,%r14d
    287d:	75 08                	jne    2887 <printf_core+0x5a9>
    287f:	84 d2                	test   %dl,%dl
    2881:	0f 85 6b 01 00 00    	jne    29f2 <printf_core+0x714>
    2887:	48 8d 84 24 a0 00 00 	lea    0xa0(%rsp),%rax
    288e:	00 
    288f:	0f b6 d2             	movzbl %dl,%edx
    2892:	4d 63 f6             	movslq %r14d,%r14
    2895:	4c 29 f8             	sub    %r15,%rax
    2898:	48 01 d0             	add    %rdx,%rax
    289b:	4c 39 f0             	cmp    %r14,%rax
    289e:	4c 0f 4d f0          	cmovge %rax,%r14
    28a2:	e9 41 01 00 00       	jmp    29e8 <printf_core+0x70a>
    28a7:	48 8b 44 24 60       	mov    0x60(%rsp),%rax
    28ac:	41 81 e4 ff ff fe ff 	and    $0xfffeffff,%r12d
    28b3:	4c 8d 0d 3b 1e 00 00 	lea    0x1e3b(%rip),%r9        # 46f5 <all_mask+0x75>
    28ba:	41 be 01 00 00 00    	mov    $0x1,%r14d
    28c0:	48 8d 94 24 a0 00 00 	lea    0xa0(%rsp),%rdx
    28c7:	00 
    28c8:	4c 8d bc 24 9f 00 00 	lea    0x9f(%rsp),%r15
    28cf:	00 
    28d0:	88 84 24 9f 00 00 00 	mov    %al,0x9f(%rsp)
    28d7:	e9 24 01 00 00       	jmp    2a00 <printf_core+0x722>
    28dc:	e8 8d 0b 00 00       	call   346e <__errno_location>
    28e1:	8b 38                	mov    (%rax),%edi
    28e3:	e8 bf 0b 00 00       	call   34a7 <strerror>
    28e8:	49 89 c7             	mov    %rax,%r15
    28eb:	eb 11                	jmp    28fe <printf_core+0x620>
    28ed:	4c 8b 7c 24 60       	mov    0x60(%rsp),%r15
    28f2:	4d 85 ff             	test   %r15,%r15
    28f5:	75 07                	jne    28fe <printf_core+0x620>
    28f7:	4c 8d 3d 01 1e 00 00 	lea    0x1e01(%rip),%r15        # 46ff <all_mask+0x7f>
    28fe:	45 85 f6             	test   %r14d,%r14d
    2901:	be ff ff ff 7f       	mov    $0x7fffffff,%esi
    2906:	4c 89 ff             	mov    %r15,%rdi
    2909:	49 0f 49 f6          	cmovns %r14,%rsi
    290d:	e8 fe 04 00 00       	call   2e10 <strnlen>
    2912:	49 8d 14 07          	lea    (%r15,%rax,1),%rdx
    2916:	45 85 f6             	test   %r14d,%r14d
    2919:	79 09                	jns    2924 <printf_core+0x646>
    291b:	80 3a 00             	cmpb   $0x0,(%rdx)
    291e:	0f 85 1f 02 00 00    	jne    2b43 <printf_core+0x865>
    2924:	41 89 c6             	mov    %eax,%r14d
    2927:	41 81 e4 ff ff fe ff 	and    $0xfffeffff,%r12d
    292e:	4c 8d 0d c0 1d 00 00 	lea    0x1dc0(%rip),%r9        # 46f5 <all_mask+0x75>
    2935:	e9 c6 00 00 00       	jmp    2a00 <printf_core+0x722>
    293a:	48 8b 44 24 60       	mov    0x60(%rsp),%rax
    293f:	c7 44 24 5c 00 00 00 	movl   $0x0,0x5c(%rsp)
    2946:	00 
    2947:	49 83 ce ff          	or     $0xffffffffffffffff,%r14
    294b:	89 44 24 58          	mov    %eax,0x58(%rsp)
    294f:	48 8d 44 24 58       	lea    0x58(%rsp),%rax
    2954:	48 89 44 24 60       	mov    %rax,0x60(%rsp)
    2959:	48 8b 44 24 60       	mov    0x60(%rsp),%rax
    295e:	31 ed                	xor    %ebp,%ebp
    2960:	48 89 44 24 20       	mov    %rax,0x20(%rsp)
    2965:	48 89 c3             	mov    %rax,%rbx
    2968:	49 39 ee             	cmp    %rbp,%r14
    296b:	0f 86 ea 01 00 00    	jbe    2b5b <printf_core+0x87d>
    2971:	8b 33                	mov    (%rbx),%esi
    2973:	85 f6                	test   %esi,%esi
    2975:	0f 84 e0 01 00 00    	je     2b5b <printf_core+0x87d>
    297b:	48 8d 7c 24 4c       	lea    0x4c(%rsp),%rdi
    2980:	48 83 c3 04          	add    $0x4,%rbx
    2984:	e8 fb 0c 00 00       	call   3684 <wctomb>
    2989:	85 c0                	test   %eax,%eax
    298b:	0f 88 bd 01 00 00    	js     2b4e <printf_core+0x870>
    2991:	4c 89 f2             	mov    %r14,%rdx
    2994:	48 98                	cltq   
    2996:	48 29 ea             	sub    %rbp,%rdx
    2999:	48 39 d0             	cmp    %rdx,%rax
    299c:	0f 87 b9 01 00 00    	ja     2b5b <printf_core+0x87d>
    29a2:	48 01 c5             	add    %rax,%rbp
    29a5:	eb c1                	jmp    2968 <printf_core+0x68a>
    29a7:	45 85 f6             	test   %r14d,%r14d
    29aa:	79 0a                	jns    29b6 <printf_core+0x6d8>
    29ac:	41 80 e2 01          	and    $0x1,%r10b
    29b0:	0f 85 8d 01 00 00    	jne    2b43 <printf_core+0x865>
    29b6:	ff 74 24 68          	push   0x68(%rsp)
    29ba:	44 89 f2             	mov    %r14d,%edx
    29bd:	44 89 e1             	mov    %r12d,%ecx
    29c0:	4c 89 ef             	mov    %r13,%rdi
    29c3:	ff 74 24 68          	push   0x68(%rsp)
    29c7:	8b 74 24 1c          	mov    0x1c(%rsp),%esi
    29cb:	e8 fc ed ff ff       	call   17cc <fmt_fp>
    29d0:	89 c3                	mov    %eax,%ebx
    29d2:	58                   	pop    %rax
    29d3:	5a                   	pop    %rdx
    29d4:	85 db                	test   %ebx,%ebx
    29d6:	0f 89 bc f9 ff ff    	jns    2398 <printf_core+0xba>
    29dc:	e9 62 01 00 00       	jmp    2b43 <printf_core+0x865>
    29e1:	4c 8d 0d 0d 1d 00 00 	lea    0x1d0d(%rip),%r9        # 46f5 <all_mask+0x75>
    29e8:	48 8d 94 24 a0 00 00 	lea    0xa0(%rsp),%rdx
    29ef:	00 
    29f0:	eb 0e                	jmp    2a00 <printf_core+0x722>
    29f2:	48 8d 94 24 a0 00 00 	lea    0xa0(%rsp),%rdx
    29f9:	00 
    29fa:	41 89 ee             	mov    %ebp,%r14d
    29fd:	49 89 d7             	mov    %rdx,%r15
    2a00:	49 63 c6             	movslq %r14d,%rax
    2a03:	4c 29 fa             	sub    %r15,%rdx
    2a06:	4c 89 4c 24 38       	mov    %r9,0x38(%rsp)
    2a0b:	48 39 d0             	cmp    %rdx,%rax
    2a0e:	48 89 54 24 20       	mov    %rdx,0x20(%rsp)
    2a13:	b8 ff ff ff 7f       	mov    $0x7fffffff,%eax
    2a18:	44 0f 4c 74 24 20    	cmovl  0x20(%rsp),%r14d
    2a1e:	29 d8                	sub    %ebx,%eax
    2a20:	44 39 f0             	cmp    %r14d,%eax
    2a23:	0f 8c 1a 01 00 00    	jl     2b43 <printf_core+0x865>
    2a29:	8b 6c 24 0c          	mov    0xc(%rsp),%ebp
    2a2d:	45 8d 14 1e          	lea    (%r14,%rbx,1),%r10d
    2a31:	44 3b 54 24 0c       	cmp    0xc(%rsp),%r10d
    2a36:	41 0f 4d ea          	cmovge %r10d,%ebp
    2a3a:	39 6c 24 34          	cmp    %ebp,0x34(%rsp)
    2a3e:	0f 8c ff 00 00 00    	jl     2b43 <printf_core+0x865>
    2a44:	44 89 d1             	mov    %r10d,%ecx
    2a47:	45 89 e0             	mov    %r12d,%r8d
    2a4a:	89 ea                	mov    %ebp,%edx
    2a4c:	44 89 54 24 0c       	mov    %r10d,0xc(%rsp)
    2a51:	be 20 00 00 00       	mov    $0x20,%esi
    2a56:	4c 89 ef             	mov    %r13,%rdi
    2a59:	e8 de ec ff ff       	call   173c <pad>
    2a5e:	48 8b 74 24 38       	mov    0x38(%rsp),%rsi
    2a63:	48 63 d3             	movslq %ebx,%rdx
    2a66:	4c 89 ef             	mov    %r13,%rdi
    2a69:	89 eb                	mov    %ebp,%ebx
    2a6b:	e8 b4 ec ff ff       	call   1724 <out>
    2a70:	8b 4c 24 0c          	mov    0xc(%rsp),%ecx
    2a74:	45 89 e0             	mov    %r12d,%r8d
    2a77:	89 ea                	mov    %ebp,%edx
    2a79:	41 81 f0 00 00 01 00 	xor    $0x10000,%r8d
    2a80:	be 30 00 00 00       	mov    $0x30,%esi
    2a85:	4c 89 ef             	mov    %r13,%rdi
    2a88:	e8 af ec ff ff       	call   173c <pad>
    2a8d:	8b 4c 24 20          	mov    0x20(%rsp),%ecx
    2a91:	45 31 c0             	xor    %r8d,%r8d
    2a94:	44 89 f2             	mov    %r14d,%edx
    2a97:	be 30 00 00 00       	mov    $0x30,%esi
    2a9c:	4c 89 ef             	mov    %r13,%rdi
    2a9f:	e8 98 ec ff ff       	call   173c <pad>
    2aa4:	48 8b 54 24 20       	mov    0x20(%rsp),%rdx
    2aa9:	4c 89 fe             	mov    %r15,%rsi
    2aac:	4c 89 ef             	mov    %r13,%rdi
    2aaf:	e8 70 ec ff ff       	call   1724 <out>
    2ab4:	8b 4c 24 0c          	mov    0xc(%rsp),%ecx
    2ab8:	45 89 e0             	mov    %r12d,%r8d
    2abb:	89 ea                	mov    %ebp,%edx
    2abd:	41 81 f0 00 20 00 00 	xor    $0x2000,%r8d
    2ac4:	be 20 00 00 00       	mov    $0x20,%esi
    2ac9:	4c 89 ef             	mov    %r13,%rdi
    2acc:	e8 6b ec ff ff       	call   173c <pad>
    2ad1:	e9 42 f8 ff ff       	jmp    2318 <printf_core+0x3a>
    2ad6:	4d 85 ed             	test   %r13,%r13
    2ad9:	0f 85 06 01 00 00    	jne    2be5 <printf_core+0x907>
    2adf:	83 7c 24 30 00       	cmpl   $0x0,0x30(%rsp)
    2ae4:	41 b8 01 00 00 00    	mov    $0x1,%r8d
    2aea:	0f 84 6b fb ff ff    	je     265b <printf_core+0x37d>
    2af0:	48 8b 44 24 18       	mov    0x18(%rsp),%rax
    2af5:	42 8b 34 80          	mov    (%rax,%r8,4),%esi
    2af9:	85 f6                	test   %esi,%esi
    2afb:	74 35                	je     2b32 <printf_core+0x854>
    2afd:	4c 89 c7             	mov    %r8,%rdi
    2b00:	48 8b 54 24 10       	mov    0x10(%rsp),%rdx
    2b05:	49 ff c0             	inc    %r8
    2b08:	48 c1 e7 04          	shl    $0x4,%rdi
    2b0c:	48 03 7c 24 28       	add    0x28(%rsp),%rdi
    2b11:	e8 3b ea ff ff       	call   1551 <pop_arg>
    2b16:	49 83 f8 0a          	cmp    $0xa,%r8
    2b1a:	75 d4                	jne    2af0 <printf_core+0x812>
    2b1c:	c7 44 24 08 01 00 00 	movl   $0x1,0x8(%rsp)
    2b23:	00 
    2b24:	e9 bc 00 00 00       	jmp    2be5 <printf_core+0x907>
    2b29:	49 ff c0             	inc    %r8
    2b2c:	49 83 f8 0a          	cmp    $0xa,%r8
    2b30:	74 ea                	je     2b1c <printf_core+0x83e>
    2b32:	48 8b 44 24 18       	mov    0x18(%rsp),%rax
    2b37:	42 83 3c 80 00       	cmpl   $0x0,(%rax,%r8,4)
    2b3c:	74 eb                	je     2b29 <printf_core+0x84b>
    2b3e:	e9 27 f9 ff ff       	jmp    246a <printf_core+0x18c>
    2b43:	e8 26 09 00 00       	call   346e <__errno_location>
    2b48:	c7 00 4b 00 00 00    	movl   $0x4b,(%rax)
    2b4e:	c7 44 24 08 ff ff ff 	movl   $0xffffffff,0x8(%rsp)
    2b55:	ff 
    2b56:	e9 8a 00 00 00       	jmp    2be5 <printf_core+0x907>
    2b5b:	48 81 fd ff ff ff 7f 	cmp    $0x7fffffff,%rbp
    2b62:	77 df                	ja     2b43 <printf_core+0x865>
    2b64:	8b 54 24 0c          	mov    0xc(%rsp),%edx
    2b68:	45 89 e0             	mov    %r12d,%r8d
    2b6b:	89 e9                	mov    %ebp,%ecx
    2b6d:	be 20 00 00 00       	mov    $0x20,%esi
    2b72:	4c 89 ef             	mov    %r13,%rdi
    2b75:	89 eb                	mov    %ebp,%ebx
    2b77:	4c 8d 7c 24 4c       	lea    0x4c(%rsp),%r15
    2b7c:	45 31 f6             	xor    %r14d,%r14d
    2b7f:	e8 b8 eb ff ff       	call   173c <pad>
    2b84:	4c 39 f5             	cmp    %r14,%rbp
    2b87:	77 2b                	ja     2bb4 <printf_core+0x8d6>
    2b89:	8b 54 24 0c          	mov    0xc(%rsp),%edx
    2b8d:	45 89 e0             	mov    %r12d,%r8d
    2b90:	89 d9                	mov    %ebx,%ecx
    2b92:	be 20 00 00 00       	mov    $0x20,%esi
    2b97:	41 81 f0 00 20 00 00 	xor    $0x2000,%r8d
    2b9e:	4c 89 ef             	mov    %r13,%rdi
    2ba1:	e8 96 eb ff ff       	call   173c <pad>
    2ba6:	39 5c 24 0c          	cmp    %ebx,0xc(%rsp)
    2baa:	0f 4d 5c 24 0c       	cmovge 0xc(%rsp),%ebx
    2baf:	e9 e4 f7 ff ff       	jmp    2398 <printf_core+0xba>
    2bb4:	48 8b 44 24 20       	mov    0x20(%rsp),%rax
    2bb9:	8b 30                	mov    (%rax),%esi
    2bbb:	85 f6                	test   %esi,%esi
    2bbd:	74 ca                	je     2b89 <printf_core+0x8ab>
    2bbf:	4c 89 ff             	mov    %r15,%rdi
    2bc2:	48 83 44 24 20 04    	addq   $0x4,0x20(%rsp)
    2bc8:	e8 b7 0a 00 00       	call   3684 <wctomb>
    2bcd:	48 63 d0             	movslq %eax,%rdx
    2bd0:	49 01 d6             	add    %rdx,%r14
    2bd3:	49 39 ee             	cmp    %rbp,%r14
    2bd6:	77 b1                	ja     2b89 <printf_core+0x8ab>
    2bd8:	4c 89 fe             	mov    %r15,%rsi
    2bdb:	4c 89 ef             	mov    %r13,%rdi
    2bde:	e8 41 eb ff ff       	call   1724 <out>
    2be3:	eb 9f                	jmp    2b84 <printf_core+0x8a6>
    2be5:	8b 44 24 08          	mov    0x8(%rsp),%eax
    2be9:	48 81 c4 a8 00 00 00 	add    $0xa8,%rsp
    2bf0:	5b                   	pop    %rbx
    2bf1:	5d                   	pop    %rbp
    2bf2:	41 5c                	pop    %r12
    2bf4:	41 5d                	pop    %r13
    2bf6:	41 5e                	pop    %r14
    2bf8:	41 5f                	pop    %r15
    2bfa:	c3                   	ret    

0000000000002bfb <vfprintf>:
    2bfb:	41 57                	push   %r15
    2bfd:	31 c0                	xor    %eax,%eax
    2bff:	b9 0a 00 00 00       	mov    $0xa,%ecx
    2c04:	41 56                	push   %r14
    2c06:	41 55                	push   %r13
    2c08:	41 54                	push   %r12
    2c0a:	41 83 cc ff          	or     $0xffffffff,%r12d
    2c0e:	55                   	push   %rbp
    2c0f:	48 89 fd             	mov    %rdi,%rbp
    2c12:	53                   	push   %rbx
    2c13:	48 81 ec 58 01 00 00 	sub    $0x158,%rsp
    2c1a:	48 8d 7c 24 38       	lea    0x38(%rsp),%rdi
    2c1f:	4c 8d 74 24 20       	lea    0x20(%rsp),%r14
    2c24:	48 89 74 24 08       	mov    %rsi,0x8(%rsp)
    2c29:	f3 ab                	rep stos %eax,%es:(%rdi)
    2c2b:	4c 8d bc 24 b0 00 00 	lea    0xb0(%rsp),%r15
    2c32:	00 
    2c33:	4c 8d 44 24 38       	lea    0x38(%rsp),%r8
    2c38:	31 ff                	xor    %edi,%edi
    2c3a:	4c 89 f9             	mov    %r15,%rcx
    2c3d:	0f 10 02             	movups (%rdx),%xmm0
    2c40:	0f 11 44 24 20       	movups %xmm0,0x20(%rsp)
    2c45:	48 8b 42 10          	mov    0x10(%rdx),%rax
    2c49:	4c 89 f2             	mov    %r14,%rdx
    2c4c:	4c 89 44 24 10       	mov    %r8,0x10(%rsp)
    2c51:	48 89 44 24 30       	mov    %rax,0x30(%rsp)
    2c56:	e8 83 f6 ff ff       	call   22de <printf_core>
    2c5b:	85 c0                	test   %eax,%eax
    2c5d:	0f 88 16 01 00 00    	js     2d79 <vfprintf+0x17e>
    2c63:	8b 85 8c 00 00 00    	mov    0x8c(%rbp),%eax
    2c69:	31 db                	xor    %ebx,%ebx
    2c6b:	4c 8b 44 24 10       	mov    0x10(%rsp),%r8
    2c70:	85 c0                	test   %eax,%eax
    2c72:	78 0f                	js     2c83 <vfprintf+0x88>
    2c74:	48 89 ef             	mov    %rbp,%rdi
    2c77:	e8 d7 0a 00 00       	call   3753 <__lockfile>
    2c7c:	4c 8b 44 24 10       	mov    0x10(%rsp),%r8
    2c81:	89 c3                	mov    %eax,%ebx
    2c83:	8b 45 00             	mov    0x0(%rbp),%eax
    2c86:	89 c1                	mov    %eax,%ecx
    2c88:	83 e1 20             	and    $0x20,%ecx
    2c8b:	83 bd 88 00 00 00 00 	cmpl   $0x0,0x88(%rbp)
    2c92:	89 4c 24 10          	mov    %ecx,0x10(%rsp)
    2c96:	7f 06                	jg     2c9e <vfprintf+0xa3>
    2c98:	83 e0 df             	and    $0xffffffdf,%eax
    2c9b:	89 45 00             	mov    %eax,0x0(%rbp)
    2c9e:	48 83 7d 60 00       	cmpq   $0x0,0x60(%rbp)
    2ca3:	75 2f                	jne    2cd4 <vfprintf+0xd9>
    2ca5:	48 8d 44 24 60       	lea    0x60(%rsp),%rax
    2caa:	4c 8b 6d 58          	mov    0x58(%rbp),%r13
    2cae:	48 c7 45 60 50 00 00 	movq   $0x50,0x60(%rbp)
    2cb5:	00 
    2cb6:	48 89 45 58          	mov    %rax,0x58(%rbp)
    2cba:	48 c7 45 20 00 00 00 	movq   $0x0,0x20(%rbp)
    2cc1:	00 
    2cc2:	48 c7 45 38 00 00 00 	movq   $0x0,0x38(%rbp)
    2cc9:	00 
    2cca:	48 c7 45 28 00 00 00 	movq   $0x0,0x28(%rbp)
    2cd1:	00 
    2cd2:	eb 09                	jmp    2cdd <vfprintf+0xe2>
    2cd4:	4c 8b 6d 20          	mov    0x20(%rbp),%r13
    2cd8:	4d 85 ed             	test   %r13,%r13
    2cdb:	75 1c                	jne    2cf9 <vfprintf+0xfe>
    2cdd:	48 89 ef             	mov    %rbp,%rdi
    2ce0:	4c 89 44 24 18       	mov    %r8,0x18(%rsp)
    2ce5:	41 83 cc ff          	or     $0xffffffff,%r12d
    2ce9:	e8 a9 0c 00 00       	call   3997 <__towrite>
    2cee:	85 c0                	test   %eax,%eax
    2cf0:	75 20                	jne    2d12 <vfprintf+0x117>
    2cf2:	4c 8b 44 24 18       	mov    0x18(%rsp),%r8
    2cf7:	eb 03                	jmp    2cfc <vfprintf+0x101>
    2cf9:	45 31 ed             	xor    %r13d,%r13d
    2cfc:	48 8b 74 24 08       	mov    0x8(%rsp),%rsi
    2d01:	4c 89 f9             	mov    %r15,%rcx
    2d04:	4c 89 f2             	mov    %r14,%rdx
    2d07:	48 89 ef             	mov    %rbp,%rdi
    2d0a:	e8 cf f5 ff ff       	call   22de <printf_core>
    2d0f:	41 89 c4             	mov    %eax,%r12d
    2d12:	4d 85 ed             	test   %r13,%r13
    2d15:	74 3c                	je     2d53 <vfprintf+0x158>
    2d17:	31 d2                	xor    %edx,%edx
    2d19:	31 f6                	xor    %esi,%esi
    2d1b:	48 89 ef             	mov    %rbp,%rdi
    2d1e:	ff 55 48             	call   *0x48(%rbp)
    2d21:	48 83 7d 28 00       	cmpq   $0x0,0x28(%rbp)
    2d26:	b8 ff ff ff ff       	mov    $0xffffffff,%eax
    2d2b:	4c 89 6d 58          	mov    %r13,0x58(%rbp)
    2d2f:	48 c7 45 60 00 00 00 	movq   $0x0,0x60(%rbp)
    2d36:	00 
    2d37:	44 0f 44 e0          	cmove  %eax,%r12d
    2d3b:	48 c7 45 20 00 00 00 	movq   $0x0,0x20(%rbp)
    2d42:	00 
    2d43:	48 c7 45 38 00 00 00 	movq   $0x0,0x38(%rbp)
    2d4a:	00 
    2d4b:	48 c7 45 28 00 00 00 	movq   $0x0,0x28(%rbp)
    2d52:	00 
    2d53:	8b 45 00             	mov    0x0(%rbp),%eax
    2d56:	44 8b 6c 24 10       	mov    0x10(%rsp),%r13d
    2d5b:	ba ff ff ff ff       	mov    $0xffffffff,%edx
    2d60:	a8 20                	test   $0x20,%al
    2d62:	44 0f 45 e2          	cmovne %edx,%r12d
    2d66:	41 09 c5             	or     %eax,%r13d
    2d69:	44 89 6d 00          	mov    %r13d,0x0(%rbp)
    2d6d:	85 db                	test   %ebx,%ebx
    2d6f:	74 08                	je     2d79 <vfprintf+0x17e>
    2d71:	48 89 ef             	mov    %rbp,%rdi
    2d74:	e8 88 0a 00 00       	call   3801 <__unlockfile>
    2d79:	48 81 c4 58 01 00 00 	add    $0x158,%rsp
    2d80:	44 89 e0             	mov    %r12d,%eax
    2d83:	5b                   	pop    %rbx
    2d84:	5d                   	pop    %rbp
    2d85:	41 5c                	pop    %r12
    2d87:	41 5d                	pop    %r13
    2d89:	41 5e                	pop    %r14
    2d8b:	41 5f                	pop    %r15
    2d8d:	c3                   	ret    
    2d8e:	66 90                	xchg   %ax,%ax

0000000000002d90 <strlen>:
    2d90:	48 89 f8             	mov    %rdi,%rax
    2d93:	40 f6 c7 07          	test   $0x7,%dil
    2d97:	75 0f                	jne    2da8 <strlen+0x18>
    2d99:	eb 1d                	jmp    2db8 <strlen+0x28>
    2d9b:	0f 1f 44 00 00       	nopl   0x0(%rax,%rax,1)
    2da0:	48 83 c0 01          	add    $0x1,%rax
    2da4:	a8 07                	test   $0x7,%al
    2da6:	74 10                	je     2db8 <strlen+0x28>
    2da8:	80 38 00             	cmpb   $0x0,(%rax)
    2dab:	75 f3                	jne    2da0 <strlen+0x10>
    2dad:	48 29 f8             	sub    %rdi,%rax
    2db0:	c3                   	ret    
    2db1:	0f 1f 80 00 00 00 00 	nopl   0x0(%rax)
    2db8:	49 b8 ff fe fe fe fe 	movabs $0xfefefefefefefeff,%r8
    2dbf:	fe fe fe 
    2dc2:	48 8b 10             	mov    (%rax),%rdx
    2dc5:	48 be 80 80 80 80 80 	movabs $0x8080808080808080,%rsi
    2dcc:	80 80 80 
    2dcf:	4a 8d 0c 02          	lea    (%rdx,%r8,1),%rcx
    2dd3:	48 f7 d2             	not    %rdx
    2dd6:	48 21 ca             	and    %rcx,%rdx
    2dd9:	48 85 f2             	test   %rsi,%rdx
    2ddc:	75 26                	jne    2e04 <strlen+0x74>
    2dde:	66 90                	xchg   %ax,%ax
    2de0:	48 8b 50 08          	mov    0x8(%rax),%rdx
    2de4:	48 83 c0 08          	add    $0x8,%rax
    2de8:	4a 8d 0c 02          	lea    (%rdx,%r8,1),%rcx
    2dec:	48 f7 d2             	not    %rdx
    2def:	48 21 ca             	and    %rcx,%rdx
    2df2:	48 85 f2             	test   %rsi,%rdx
    2df5:	74 e9                	je     2de0 <strlen+0x50>
    2df7:	eb 0b                	jmp    2e04 <strlen+0x74>
    2df9:	0f 1f 80 00 00 00 00 	nopl   0x0(%rax)
    2e00:	48 83 c0 01          	add    $0x1,%rax
    2e04:	80 38 00             	cmpb   $0x0,(%rax)
    2e07:	75 f7                	jne    2e00 <strlen+0x70>
    2e09:	48 29 f8             	sub    %rdi,%rax
    2e0c:	c3                   	ret    
    2e0d:	0f 1f 00             	nopl   (%rax)

0000000000002e10 <strnlen>:
    2e10:	55                   	push   %rbp
    2e11:	48 89 f2             	mov    %rsi,%rdx
    2e14:	48 89 fd             	mov    %rdi,%rbp
    2e17:	53                   	push   %rbx
    2e18:	48 89 f3             	mov    %rsi,%rbx
    2e1b:	31 f6                	xor    %esi,%esi
    2e1d:	48 83 ec 08          	sub    $0x8,%rsp
    2e21:	e8 da 0d 00 00       	call   3c00 <memchr>
    2e26:	48 89 c2             	mov    %rax,%rdx
    2e29:	48 29 ea             	sub    %rbp,%rdx
    2e2c:	48 85 c0             	test   %rax,%rax
    2e2f:	48 89 d8             	mov    %rbx,%rax
    2e32:	48 0f 45 c2          	cmovne %rdx,%rax
    2e36:	48 83 c4 08          	add    $0x8,%rsp
    2e3a:	5b                   	pop    %rbx
    2e3b:	5d                   	pop    %rbp
    2e3c:	c3                   	ret    

0000000000002e3d <memset>:
    2e3d:	48 0f b6 c6          	movzbq %sil,%rax
    2e41:	49 b8 01 01 01 01 01 	movabs $0x101010101010101,%r8
    2e48:	01 01 01 
    2e4b:	49 0f af c0          	imul   %r8,%rax
    2e4f:	48 83 fa 7e          	cmp    $0x7e,%rdx
    2e53:	77 78                	ja     2ecd <memset+0x90>
    2e55:	85 d2                	test   %edx,%edx
    2e57:	74 70                	je     2ec9 <memset+0x8c>
    2e59:	40 88 37             	mov    %sil,(%rdi)
    2e5c:	40 88 74 17 ff       	mov    %sil,-0x1(%rdi,%rdx,1)
    2e61:	83 fa 02             	cmp    $0x2,%edx
    2e64:	76 63                	jbe    2ec9 <memset+0x8c>
    2e66:	66 89 47 01          	mov    %ax,0x1(%rdi)
    2e6a:	66 89 44 17 fd       	mov    %ax,-0x3(%rdi,%rdx,1)
    2e6f:	83 fa 06             	cmp    $0x6,%edx
    2e72:	76 55                	jbe    2ec9 <memset+0x8c>
    2e74:	89 47 03             	mov    %eax,0x3(%rdi)
    2e77:	89 44 17 f9          	mov    %eax,-0x7(%rdi,%rdx,1)
    2e7b:	83 fa 0e             	cmp    $0xe,%edx
    2e7e:	76 49                	jbe    2ec9 <memset+0x8c>
    2e80:	48 89 47 07          	mov    %rax,0x7(%rdi)
    2e84:	48 89 44 17 f1       	mov    %rax,-0xf(%rdi,%rdx,1)
    2e89:	83 fa 1e             	cmp    $0x1e,%edx
    2e8c:	76 3b                	jbe    2ec9 <memset+0x8c>
    2e8e:	48 89 47 0f          	mov    %rax,0xf(%rdi)
    2e92:	48 89 47 17          	mov    %rax,0x17(%rdi)
    2e96:	48 89 44 17 e1       	mov    %rax,-0x1f(%rdi,%rdx,1)
    2e9b:	48 89 44 17 e9       	mov    %rax,-0x17(%rdi,%rdx,1)
    2ea0:	83 fa 3e             	cmp    $0x3e,%edx
    2ea3:	76 24                	jbe    2ec9 <memset+0x8c>
    2ea5:	48 89 47 1f          	mov    %rax,0x1f(%rdi)
    2ea9:	48 89 47 27          	mov    %rax,0x27(%rdi)
    2ead:	48 89 47 2f          	mov    %rax,0x2f(%rdi)
    2eb1:	48 89 47 37          	mov    %rax,0x37(%rdi)
    2eb5:	48 89 44 17 c1       	mov    %rax,-0x3f(%rdi,%rdx,1)
    2eba:	48 89 44 17 c9       	mov    %rax,-0x37(%rdi,%rdx,1)
    2ebf:	48 89 44 17 d1       	mov    %rax,-0x2f(%rdi,%rdx,1)
    2ec4:	48 89 44 17 d9       	mov    %rax,-0x27(%rdi,%rdx,1)
    2ec9:	48 89 f8             	mov    %rdi,%rax
    2ecc:	c3                   	ret    
    2ecd:	f7 c7 0f 00 00 00    	test   $0xf,%edi
    2ed3:	49 89 f8             	mov    %rdi,%r8
    2ed6:	48 89 44 17 f8       	mov    %rax,-0x8(%rdi,%rdx,1)
    2edb:	48 89 d1             	mov    %rdx,%rcx
    2ede:	75 0b                	jne    2eeb <memset+0xae>
    2ee0:	48 c1 e9 03          	shr    $0x3,%rcx
    2ee4:	f3 48 ab             	rep stos %rax,%es:(%rdi)
    2ee7:	4c 89 c0             	mov    %r8,%rax
    2eea:	c3                   	ret    
    2eeb:	31 d2                	xor    %edx,%edx
    2eed:	29 fa                	sub    %edi,%edx
    2eef:	83 e2 0f             	and    $0xf,%edx
    2ef2:	48 89 07             	mov    %rax,(%rdi)
    2ef5:	48 89 47 08          	mov    %rax,0x8(%rdi)
    2ef9:	48 29 d1             	sub    %rdx,%rcx
    2efc:	48 01 d7             	add    %rdx,%rdi
    2eff:	eb df                	jmp    2ee0 <memset+0xa3>

0000000000002f01 <__lock>:
    2f01:	0f be 0d bb 33 20 00 	movsbl 0x2033bb(%rip),%ecx        # 2062c3 <__libc+0x3>
    2f08:	85 c9                	test   %ecx,%ecx
    2f0a:	0f 84 a2 00 00 00    	je     2fb2 <__lock+0xb1>
    2f10:	31 c0                	xor    %eax,%eax
    2f12:	ba 01 00 00 80       	mov    $0x80000001,%edx
    2f17:	f0 0f b1 17          	lock cmpxchg %edx,(%rdi)
    2f1b:	89 c2                	mov    %eax,%edx
    2f1d:	85 c9                	test   %ecx,%ecx
    2f1f:	79 07                	jns    2f28 <__lock+0x27>
    2f21:	c6 05 9b 33 20 00 00 	movb   $0x0,0x20339b(%rip)        # 2062c3 <__libc+0x3>
    2f28:	85 c0                	test   %eax,%eax
    2f2a:	0f 84 82 00 00 00    	je     2fb2 <__lock+0xb1>
    2f30:	be 0a 00 00 00       	mov    $0xa,%esi
    2f35:	89 d1                	mov    %edx,%ecx
    2f37:	85 d2                	test   %edx,%edx
    2f39:	79 06                	jns    2f41 <__lock+0x40>
    2f3b:	81 c1 ff ff ff 7f    	add    $0x7fffffff,%ecx
    2f41:	8d 91 01 00 00 80    	lea    -0x7fffffff(%rcx),%edx
    2f47:	89 c8                	mov    %ecx,%eax
    2f49:	f0 0f b1 17          	lock cmpxchg %edx,(%rdi)
    2f4d:	89 c2                	mov    %eax,%edx
    2f4f:	39 c1                	cmp    %eax,%ecx
    2f51:	74 5f                	je     2fb2 <__lock+0xb1>
    2f53:	ff ce                	dec    %esi
    2f55:	75 de                	jne    2f35 <__lock+0x34>
    2f57:	53                   	push   %rbx
    2f58:	41 b8 01 00 00 00    	mov    $0x1,%r8d
    2f5e:	f0 44 0f c1 07       	lock xadd %r8d,(%rdi)
    2f63:	41 b9 ca 00 00 00    	mov    $0xca,%r9d
    2f69:	41 ff c0             	inc    %r8d
    2f6c:	bb 80 00 00 00       	mov    $0x80,%ebx
    2f71:	44 89 c2             	mov    %r8d,%edx
    2f74:	45 85 c0             	test   %r8d,%r8d
    2f77:	79 22                	jns    2f9b <__lock+0x9a>
    2f79:	49 63 d0             	movslq %r8d,%rdx
    2f7c:	45 31 d2             	xor    %r10d,%r10d
    2f7f:	4c 89 c8             	mov    %r9,%rax
    2f82:	48 89 de             	mov    %rbx,%rsi
    2f85:	0f 05                	syscall 
    2f87:	48 83 f8 da          	cmp    $0xffffffffffffffda,%rax
    2f8b:	75 07                	jne    2f94 <__lock+0x93>
    2f8d:	31 f6                	xor    %esi,%esi
    2f8f:	4c 89 c8             	mov    %r9,%rax
    2f92:	0f 05                	syscall 
    2f94:	41 8d 90 ff ff ff 7f 	lea    0x7fffffff(%r8),%edx
    2f9b:	44 8d 82 00 00 00 80 	lea    -0x80000000(%rdx),%r8d
    2fa2:	89 d0                	mov    %edx,%eax
    2fa4:	f0 44 0f b1 07       	lock cmpxchg %r8d,(%rdi)
    2fa9:	41 89 c0             	mov    %eax,%r8d
    2fac:	39 c2                	cmp    %eax,%edx
    2fae:	75 c1                	jne    2f71 <__lock+0x70>
    2fb0:	5b                   	pop    %rbx
    2fb1:	c3                   	ret    
    2fb2:	c3                   	ret    

0000000000002fb3 <__unlock>:
    2fb3:	8b 07                	mov    (%rdi),%eax
    2fb5:	85 c0                	test   %eax,%eax
    2fb7:	79 33                	jns    2fec <__unlock+0x39>
    2fb9:	b8 ff ff ff 7f       	mov    $0x7fffffff,%eax
    2fbe:	f0 0f c1 07          	lock xadd %eax,(%rdi)
    2fc2:	3d 01 00 00 80       	cmp    $0x80000001,%eax
    2fc7:	74 23                	je     2fec <__unlock+0x39>
    2fc9:	41 b8 ca 00 00 00    	mov    $0xca,%r8d
    2fcf:	ba 01 00 00 00       	mov    $0x1,%edx
    2fd4:	be 81 00 00 00       	mov    $0x81,%esi
    2fd9:	4c 89 c0             	mov    %r8,%rax
    2fdc:	0f 05                	syscall 
    2fde:	48 83 f8 da          	cmp    $0xffffffffffffffda,%rax
    2fe2:	75 08                	jne    2fec <__unlock+0x39>
    2fe4:	4c 89 c0             	mov    %r8,%rax
    2fe7:	48 89 d6             	mov    %rdx,%rsi
    2fea:	0f 05                	syscall 
    2fec:	c3                   	ret    

0000000000002fed <__syscall_cp_c>:
    2fed:	48 89 f8             	mov    %rdi,%rax
    2ff0:	4d 89 c2             	mov    %r8,%r10
    2ff3:	48 89 f7             	mov    %rsi,%rdi
    2ff6:	4d 89 c8             	mov    %r9,%r8
    2ff9:	48 89 d6             	mov    %rdx,%rsi
    2ffc:	4c 8b 4c 24 08       	mov    0x8(%rsp),%r9
    3001:	48 89 ca             	mov    %rcx,%rdx
    3004:	0f 05                	syscall 
    3006:	c3                   	ret    

0000000000003007 <__syscall_cp>:
    3007:	e9 e1 ff ff ff       	jmp    2fed <__syscall_cp_c>

000000000000300c <__inhibit_ptc>:
    300c:	48 8d 3d 4d 37 20 00 	lea    0x20374d(%rip),%rdi        # 206760 <lock>
    3013:	e9 47 01 00 00       	jmp    315f <__pthread_rwlock_wrlock>

0000000000003018 <__acquire_ptc>:
    3018:	48 8d 3d 41 37 20 00 	lea    0x203741(%rip),%rdi        # 206760 <lock>
    301f:	e9 0c 00 00 00       	jmp    3030 <__pthread_rwlock_rdlock>

0000000000003024 <__release_ptc>:
    3024:	48 8d 3d 35 37 20 00 	lea    0x203735(%rip),%rdi        # 206760 <lock>
    302b:	e9 c0 00 00 00       	jmp    30f0 <__pthread_rwlock_unlock>

0000000000003030 <__pthread_rwlock_rdlock>:
    3030:	31 f6                	xor    %esi,%esi
    3032:	e9 00 00 00 00       	jmp    3037 <pthread_rwlock_timedrdlock>

0000000000003037 <pthread_rwlock_timedrdlock>:
    3037:	55                   	push   %rbp
    3038:	48 89 f5             	mov    %rsi,%rbp
    303b:	53                   	push   %rbx
    303c:	48 89 fb             	mov    %rdi,%rbx
    303f:	51                   	push   %rcx
    3040:	e8 78 00 00 00       	call   30bd <pthread_rwlock_tryrdlock>
    3045:	83 f8 10             	cmp    $0x10,%eax
    3048:	75 6f                	jne    30b9 <pthread_rwlock_timedrdlock+0x82>
    304a:	b8 65 00 00 00       	mov    $0x65,%eax
    304f:	ff c8                	dec    %eax
    3051:	74 17                	je     306a <pthread_rwlock_timedrdlock+0x33>
    3053:	8b 13                	mov    (%rbx),%edx
    3055:	85 d2                	test   %edx,%edx
    3057:	74 11                	je     306a <pthread_rwlock_timedrdlock+0x33>
    3059:	8b 53 04             	mov    0x4(%rbx),%edx
    305c:	85 d2                	test   %edx,%edx
    305e:	75 0a                	jne    306a <pthread_rwlock_timedrdlock+0x33>
    3060:	f3 90                	pause  
    3062:	eb eb                	jmp    304f <pthread_rwlock_timedrdlock+0x18>
    3064:	8b 03                	mov    (%rbx),%eax
    3066:	85 c0                	test   %eax,%eax
    3068:	75 0f                	jne    3079 <pthread_rwlock_timedrdlock+0x42>
    306a:	48 89 df             	mov    %rbx,%rdi
    306d:	e8 4b 00 00 00       	call   30bd <pthread_rwlock_tryrdlock>
    3072:	83 f8 10             	cmp    $0x10,%eax
    3075:	74 ed                	je     3064 <pthread_rwlock_timedrdlock+0x2d>
    3077:	eb 40                	jmp    30b9 <pthread_rwlock_timedrdlock+0x82>
    3079:	89 c2                	mov    %eax,%edx
    307b:	81 e2 ff ff ff 7f    	and    $0x7fffffff,%edx
    3081:	81 fa ff ff ff 7f    	cmp    $0x7fffffff,%edx
    3087:	75 e1                	jne    306a <pthread_rwlock_timedrdlock+0x33>
    3089:	89 c6                	mov    %eax,%esi
    308b:	81 ce 00 00 00 80    	or     $0x80000000,%esi
    3091:	f0 ff 43 04          	lock incl 0x4(%rbx)
    3095:	f0 0f b1 33          	lock cmpxchg %esi,(%rbx)
    3099:	44 8b 43 08          	mov    0x8(%rbx),%r8d
    309d:	48 89 e9             	mov    %rbp,%rcx
    30a0:	31 d2                	xor    %edx,%edx
    30a2:	48 89 df             	mov    %rbx,%rdi
    30a5:	41 80 f0 80          	xor    $0x80,%r8b
    30a9:	e8 5b 0d 00 00       	call   3e09 <__timedwait>
    30ae:	f0 ff 4b 04          	lock decl 0x4(%rbx)
    30b2:	a9 fb ff ff ff       	test   $0xfffffffb,%eax
    30b7:	74 b1                	je     306a <pthread_rwlock_timedrdlock+0x33>
    30b9:	5a                   	pop    %rdx
    30ba:	5b                   	pop    %rbx
    30bb:	5d                   	pop    %rbp
    30bc:	c3                   	ret    

00000000000030bd <pthread_rwlock_tryrdlock>:
    30bd:	8b 17                	mov    (%rdi),%edx
    30bf:	89 d0                	mov    %edx,%eax
    30c1:	25 ff ff ff 7f       	and    $0x7fffffff,%eax
    30c6:	3d ff ff ff 7f       	cmp    $0x7fffffff,%eax
    30cb:	74 17                	je     30e4 <pthread_rwlock_tryrdlock+0x27>
    30cd:	3d fe ff ff 7f       	cmp    $0x7ffffffe,%eax
    30d2:	74 16                	je     30ea <pthread_rwlock_tryrdlock+0x2d>
    30d4:	8d 4a 01             	lea    0x1(%rdx),%ecx
    30d7:	89 d0                	mov    %edx,%eax
    30d9:	f0 0f b1 0f          	lock cmpxchg %ecx,(%rdi)
    30dd:	39 c2                	cmp    %eax,%edx
    30df:	75 dc                	jne    30bd <pthread_rwlock_tryrdlock>
    30e1:	31 c0                	xor    %eax,%eax
    30e3:	c3                   	ret    
    30e4:	b8 10 00 00 00       	mov    $0x10,%eax
    30e9:	c3                   	ret    
    30ea:	b8 0b 00 00 00       	mov    $0xb,%eax
    30ef:	c3                   	ret    

00000000000030f0 <__pthread_rwlock_unlock>:
    30f0:	44 8b 4f 08          	mov    0x8(%rdi),%r9d
    30f4:	8b 0f                	mov    (%rdi),%ecx
    30f6:	44 8b 47 04          	mov    0x4(%rdi),%r8d
    30fa:	89 ca                	mov    %ecx,%edx
    30fc:	81 e2 ff ff ff 7f    	and    $0x7fffffff,%edx
    3102:	81 fa ff ff ff 7f    	cmp    $0x7fffffff,%edx
    3108:	74 08                	je     3112 <__pthread_rwlock_unlock+0x22>
    310a:	8d 71 ff             	lea    -0x1(%rcx),%esi
    310d:	83 fa 01             	cmp    $0x1,%edx
    3110:	75 02                	jne    3114 <__pthread_rwlock_unlock+0x24>
    3112:	31 f6                	xor    %esi,%esi
    3114:	89 c8                	mov    %ecx,%eax
    3116:	f0 0f b1 37          	lock cmpxchg %esi,(%rdi)
    311a:	39 c1                	cmp    %eax,%ecx
    311c:	75 d6                	jne    30f4 <__pthread_rwlock_unlock+0x4>
    311e:	85 f6                	test   %esi,%esi
    3120:	75 3a                	jne    315c <__pthread_rwlock_unlock+0x6c>
    3122:	45 85 c0             	test   %r8d,%r8d
    3125:	75 04                	jne    312b <__pthread_rwlock_unlock+0x3b>
    3127:	85 c9                	test   %ecx,%ecx
    3129:	79 31                	jns    315c <__pthread_rwlock_unlock+0x6c>
    312b:	31 f6                	xor    %esi,%esi
    312d:	41 81 f9 80 00 00 00 	cmp    $0x80,%r9d
    3134:	41 b8 ca 00 00 00    	mov    $0xca,%r8d
    313a:	48 63 d2             	movslq %edx,%rdx
    313d:	40 0f 95 c6          	setne  %sil
    3141:	4c 89 c0             	mov    %r8,%rax
    3144:	c1 e6 07             	shl    $0x7,%esi
    3147:	83 ce 01             	or     $0x1,%esi
    314a:	0f 05                	syscall 
    314c:	48 83 f8 da          	cmp    $0xffffffffffffffda,%rax
    3150:	75 0a                	jne    315c <__pthread_rwlock_unlock+0x6c>
    3152:	be 01 00 00 00       	mov    $0x1,%esi
    3157:	4c 89 c0             	mov    %r8,%rax
    315a:	0f 05                	syscall 
    315c:	31 c0                	xor    %eax,%eax
    315e:	c3                   	ret    

000000000000315f <__pthread_rwlock_wrlock>:
    315f:	31 f6                	xor    %esi,%esi
    3161:	e9 fb 0c 00 00       	jmp    3e61 <pthread_rwlock_timedwrlock>

0000000000003166 <__aio_close>:
    3166:	89 f8                	mov    %edi,%eax
    3168:	c3                   	ret    

0000000000003169 <close>:
    3169:	50                   	push   %rax
    316a:	e8 f7 ff ff ff       	call   3166 <__aio_close>
    316f:	45 31 c9             	xor    %r9d,%r9d
    3172:	45 31 c0             	xor    %r8d,%r8d
    3175:	31 c9                	xor    %ecx,%ecx
    3177:	52                   	push   %rdx
    3178:	48 63 f0             	movslq %eax,%rsi
    317b:	31 d2                	xor    %edx,%edx
    317d:	bf 03 00 00 00       	mov    $0x3,%edi
    3182:	6a 00                	push   $0x0
    3184:	e8 7e fe ff ff       	call   3007 <__syscall_cp>
    3189:	59                   	pop    %rcx
    318a:	5e                   	pop    %rsi
    318b:	83 f8 fc             	cmp    $0xfffffffc,%eax
    318e:	48 63 f8             	movslq %eax,%rdi
    3191:	b8 00 00 00 00       	mov    $0x0,%eax
    3196:	48 0f 44 f8          	cmove  %rax,%rdi
    319a:	e8 81 dd ff ff       	call   f20 <__syscall_ret>
    319f:	5f                   	pop    %rdi
    31a0:	c3                   	ret    

00000000000031a1 <fsync>:
    31a1:	48 83 ec 10          	sub    $0x10,%rsp
    31a5:	48 63 f7             	movslq %edi,%rsi
    31a8:	45 31 c9             	xor    %r9d,%r9d
    31ab:	45 31 c0             	xor    %r8d,%r8d
    31ae:	6a 00                	push   $0x0
    31b0:	31 c9                	xor    %ecx,%ecx
    31b2:	31 d2                	xor    %edx,%edx
    31b4:	bf 4a 00 00 00       	mov    $0x4a,%edi
    31b9:	e8 49 fe ff ff       	call   3007 <__syscall_cp>
    31be:	48 89 c7             	mov    %rax,%rdi
    31c1:	e8 5a dd ff ff       	call   f20 <__syscall_ret>
    31c6:	48 83 c4 18          	add    $0x18,%rsp
    31ca:	c3                   	ret    

00000000000031cb <lseek>:
    31cb:	48 63 ff             	movslq %edi,%rdi
    31ce:	48 63 d2             	movslq %edx,%rdx
    31d1:	b8 08 00 00 00       	mov    $0x8,%eax
    31d6:	0f 05                	syscall 
    31d8:	48 89 c7             	mov    %rax,%rdi
    31db:	e9 40 dd ff ff       	jmp    f20 <__syscall_ret>

00000000000031e0 <write>:
    31e0:	48 83 ec 10          	sub    $0x10,%rsp
    31e4:	49 89 f2             	mov    %rsi,%r10
    31e7:	48 89 d1             	mov    %rdx,%rcx
    31ea:	48 63 f7             	movslq %edi,%rsi
    31ed:	6a 00                	push   $0x0
    31ef:	bf 01 00 00 00       	mov    $0x1,%edi
    31f4:	45 31 c9             	xor    %r9d,%r9d
    31f7:	45 31 c0             	xor    %r8d,%r8d
    31fa:	4c 89 d2             	mov    %r10,%rdx
    31fd:	e8 05 fe ff ff       	call   3007 <__syscall_cp>
    3202:	48 83 c4 18          	add    $0x18,%rsp
    3206:	48 89 c7             	mov    %rax,%rdi
    3209:	e9 12 dd ff ff       	jmp    f20 <__syscall_ret>

000000000000320e <__init_tp>:
    320e:	53                   	push   %rbx
    320f:	48 89 fb             	mov    %rdi,%rbx
    3212:	48 89 3f             	mov    %rdi,(%rdi)
    3215:	e8 f9 0c 00 00       	call   3f13 <__set_thread_area>
    321a:	41 89 c0             	mov    %eax,%r8d
    321d:	83 c8 ff             	or     $0xffffffff,%eax
    3220:	45 85 c0             	test   %r8d,%r8d
    3223:	78 52                	js     3277 <__init_tp+0x69>
    3225:	75 07                	jne    322e <__init_tp+0x20>
    3227:	c6 05 92 30 20 00 01 	movb   $0x1,0x203092(%rip)        # 2062c0 <__libc>
    322e:	c7 43 38 02 00 00 00 	movl   $0x2,0x38(%rbx)
    3235:	b8 da 00 00 00       	mov    $0xda,%eax
    323a:	48 8d 3d ef 36 20 00 	lea    0x2036ef(%rip),%rdi        # 206930 <__thread_list_lock>
    3241:	0f 05                	syscall 
    3243:	89 43 30             	mov    %eax,0x30(%rbx)
    3246:	48 8d 05 ab 30 20 00 	lea    0x2030ab(%rip),%rax        # 2062f8 <__libc+0x38>
    324d:	48 89 83 a8 00 00 00 	mov    %rax,0xa8(%rbx)
    3254:	48 8d 83 88 00 00 00 	lea    0x88(%rbx),%rax
    325b:	48 89 83 88 00 00 00 	mov    %rax,0x88(%rbx)
    3262:	48 8b 05 27 30 20 00 	mov    0x203027(%rip),%rax        # 206290 <__sysinfo>
    3269:	48 89 5b 10          	mov    %rbx,0x10(%rbx)
    326d:	48 89 5b 18          	mov    %rbx,0x18(%rbx)
    3271:	48 89 43 20          	mov    %rax,0x20(%rbx)
    3275:	31 c0                	xor    %eax,%eax
    3277:	5b                   	pop    %rbx
    3278:	c3                   	ret    

0000000000003279 <__copy_tls>:
    3279:	41 55                	push   %r13
    327b:	4c 8d 6f 08          	lea    0x8(%rdi),%r13
    327f:	41 54                	push   %r12
    3281:	55                   	push   %rbp
    3282:	48 89 fd             	mov    %rdi,%rbp
    3285:	53                   	push   %rbx
    3286:	51                   	push   %rcx
    3287:	48 8b 05 4a 30 20 00 	mov    0x20304a(%rip),%rax        # 2062d8 <__libc+0x18>
    328e:	4c 8b 25 4b 30 20 00 	mov    0x20304b(%rip),%r12        # 2062e0 <__libc+0x20>
    3295:	48 8b 1d 34 30 20 00 	mov    0x203034(%rip),%rbx        # 2062d0 <__libc+0x10>
    329c:	48 8d 84 07 38 ff ff 	lea    -0xc8(%rdi,%rax,1),%rax
    32a3:	ff 
    32a4:	49 f7 dc             	neg    %r12
    32a7:	49 21 c4             	and    %rax,%r12
    32aa:	48 85 db             	test   %rbx,%rbx
    32ad:	74 28                	je     32d7 <__copy_tls+0x5e>
    32af:	4c 89 e0             	mov    %r12,%rax
    32b2:	48 2b 43 28          	sub    0x28(%rbx),%rax
    32b6:	48 8b 73 08          	mov    0x8(%rbx),%rsi
    32ba:	4c 89 e7             	mov    %r12,%rdi
    32bd:	49 89 45 00          	mov    %rax,0x0(%r13)
    32c1:	48 8b 53 10          	mov    0x10(%rbx),%rdx
    32c5:	49 83 c5 08          	add    $0x8,%r13
    32c9:	48 2b 7b 28          	sub    0x28(%rbx),%rdi
    32cd:	e8 f3 09 00 00       	call   3cc5 <memcpy>
    32d2:	48 8b 1b             	mov    (%rbx),%rbx
    32d5:	eb d3                	jmp    32aa <__copy_tls+0x31>
    32d7:	48 8b 05 0a 30 20 00 	mov    0x20300a(%rip),%rax        # 2062e8 <__libc+0x28>
    32de:	48 89 45 00          	mov    %rax,0x0(%rbp)
    32e2:	4c 89 e0             	mov    %r12,%rax
    32e5:	49 89 6c 24 08       	mov    %rbp,0x8(%r12)
    32ea:	5a                   	pop    %rdx
    32eb:	5b                   	pop    %rbx
    32ec:	5d                   	pop    %rbp
    32ed:	41 5c                	pop    %r12
    32ef:	41 5d                	pop    %r13
    32f1:	c3                   	ret    

00000000000032f2 <__init_tls>:
    32f2:	53                   	push   %rbx
    32f3:	4c 8b 5f 18          	mov    0x18(%rdi),%r11
    32f7:	45 31 d2             	xor    %r10d,%r10d
    32fa:	31 f6                	xor    %esi,%esi
    32fc:	4c 8b 4f 28          	mov    0x28(%rdi),%r9
    3300:	8b 0d 26 2f 20 00    	mov    0x202f26(%rip),%ecx        # 20622c <__default_stacksize>
    3306:	31 d2                	xor    %edx,%edx
    3308:	4c 89 d8             	mov    %r11,%rax
    330b:	4d 85 c9             	test   %r9,%r9
    330e:	74 62                	je     3372 <__init_tls+0x80>
    3310:	44 8b 00             	mov    (%rax),%r8d
    3313:	41 83 f8 06          	cmp    $0x6,%r8d
    3317:	75 05                	jne    331e <__init_tls+0x2c>
    3319:	4c 89 de             	mov    %r11,%rsi
    331c:	eb 1d                	jmp    333b <__init_tls+0x49>
    331e:	41 83 f8 02          	cmp    $0x2,%r8d
    3322:	74 08                	je     332c <__init_tls+0x3a>
    3324:	41 83 f8 07          	cmp    $0x7,%r8d
    3328:	74 3c                	je     3366 <__init_tls+0x74>
    332a:	eb 15                	jmp    3341 <__init_tls+0x4f>
    332c:	4c 8b 05 9d 2c 20 00 	mov    0x202c9d(%rip),%r8        # 205fd0 <_DYNAMIC+0x180>
    3333:	4d 85 c0             	test   %r8,%r8
    3336:	74 31                	je     3369 <__init_tls+0x77>
    3338:	4c 89 c6             	mov    %r8,%rsi
    333b:	48 2b 70 10          	sub    0x10(%rax),%rsi
    333f:	eb 28                	jmp    3369 <__init_tls+0x77>
    3341:	41 81 f8 51 e5 74 64 	cmp    $0x6474e551,%r8d
    3348:	75 1f                	jne    3369 <__init_tls+0x77>
    334a:	4c 8b 40 28          	mov    0x28(%rax),%r8
    334e:	89 cb                	mov    %ecx,%ebx
    3350:	49 39 d8             	cmp    %rbx,%r8
    3353:	76 14                	jbe    3369 <__init_tls+0x77>
    3355:	b9 00 00 80 00       	mov    $0x800000,%ecx
    335a:	41 b2 01             	mov    $0x1,%r10b
    335d:	49 39 c8             	cmp    %rcx,%r8
    3360:	49 0f 46 c8          	cmovbe %r8,%rcx
    3364:	eb 03                	jmp    3369 <__init_tls+0x77>
    3366:	48 89 c2             	mov    %rax,%rdx
    3369:	49 ff c9             	dec    %r9
    336c:	48 03 47 20          	add    0x20(%rdi),%rax
    3370:	eb 99                	jmp    330b <__init_tls+0x19>
    3372:	45 84 d2             	test   %r10b,%r10b
    3375:	74 06                	je     337d <__init_tls+0x8b>
    3377:	89 0d af 2e 20 00    	mov    %ecx,0x202eaf(%rip)        # 20622c <__default_stacksize>
    337d:	48 85 d2             	test   %rdx,%rdx
    3380:	74 45                	je     33c7 <__init_tls+0xd5>
    3382:	48 8b 42 20          	mov    0x20(%rdx),%rax
    3386:	48 03 72 10          	add    0x10(%rdx),%rsi
    338a:	48 89 35 17 34 20 00 	mov    %rsi,0x203417(%rip)        # 2067a8 <main_tls+0x8>
    3391:	48 89 05 18 34 20 00 	mov    %rax,0x203418(%rip)        # 2067b0 <main_tls+0x10>
    3398:	48 8b 42 28          	mov    0x28(%rdx),%rax
    339c:	48 c7 05 41 2f 20 00 	movq   $0x1,0x202f41(%rip)        # 2062e8 <__libc+0x28>
    33a3:	01 00 00 00 
    33a7:	48 89 05 0a 34 20 00 	mov    %rax,0x20340a(%rip)        # 2067b8 <main_tls+0x18>
    33ae:	48 8b 42 30          	mov    0x30(%rdx),%rax
    33b2:	48 89 05 07 34 20 00 	mov    %rax,0x203407(%rip)        # 2067c0 <main_tls+0x20>
    33b9:	48 8d 05 e0 33 20 00 	lea    0x2033e0(%rip),%rax        # 2067a0 <main_tls>
    33c0:	48 89 05 09 2f 20 00 	mov    %rax,0x202f09(%rip)        # 2062d0 <__libc+0x10>
    33c7:	48 8b 0d ea 33 20 00 	mov    0x2033ea(%rip),%rcx        # 2067b8 <main_tls+0x18>
    33ce:	48 8b 05 d3 33 20 00 	mov    0x2033d3(%rip),%rax        # 2067a8 <main_tls+0x8>
    33d5:	48 8b 15 e4 33 20 00 	mov    0x2033e4(%rip),%rdx        # 2067c0 <main_tls+0x20>
    33dc:	48 01 c8             	add    %rcx,%rax
    33df:	48 f7 d8             	neg    %rax
    33e2:	48 8d 72 ff          	lea    -0x1(%rdx),%rsi
    33e6:	48 21 f0             	and    %rsi,%rax
    33e9:	48 01 c8             	add    %rcx,%rax
    33ec:	48 89 05 c5 33 20 00 	mov    %rax,0x2033c5(%rip)        # 2067b8 <main_tls+0x18>
    33f3:	48 89 05 ce 33 20 00 	mov    %rax,0x2033ce(%rip)        # 2067c8 <main_tls+0x28>
    33fa:	48 83 fa 07          	cmp    $0x7,%rdx
    33fe:	77 0b                	ja     340b <__init_tls+0x119>
    3400:	48 c7 05 b5 33 20 00 	movq   $0x8,0x2033b5(%rip)        # 2067c0 <main_tls+0x20>
    3407:	08 00 00 00 
    340b:	48 8b 15 ae 33 20 00 	mov    0x2033ae(%rip),%rdx        # 2067c0 <main_tls+0x20>
    3412:	48 8d 3d c7 33 20 00 	lea    0x2033c7(%rip),%rdi        # 2067e0 <builtin_tls>
    3419:	48 8d b4 10 df 00 00 	lea    0xdf(%rax,%rdx,1),%rsi
    3420:	00 
    3421:	48 89 15 b8 2e 20 00 	mov    %rdx,0x202eb8(%rip)        # 2062e0 <__libc+0x20>
    3428:	48 83 e6 f8          	and    $0xfffffffffffffff8,%rsi
    342c:	48 89 35 a5 2e 20 00 	mov    %rsi,0x202ea5(%rip)        # 2062d8 <__libc+0x18>
    3433:	48 81 fe 50 01 00 00 	cmp    $0x150,%rsi
    343a:	76 1e                	jbe    345a <__init_tls+0x168>
    343c:	41 ba 22 00 00 00    	mov    $0x22,%r10d
    3442:	49 83 c8 ff          	or     $0xffffffffffffffff,%r8
    3446:	45 31 c9             	xor    %r9d,%r9d
    3449:	31 ff                	xor    %edi,%edi
    344b:	b8 09 00 00 00       	mov    $0x9,%eax
    3450:	ba 03 00 00 00       	mov    $0x3,%edx
    3455:	0f 05                	syscall 
    3457:	48 89 c7             	mov    %rax,%rdi
    345a:	e8 1a fe ff ff       	call   3279 <__copy_tls>
    345f:	48 89 c7             	mov    %rax,%rdi
    3462:	e8 a7 fd ff ff       	call   320e <__init_tp>
    3467:	85 c0                	test   %eax,%eax
    3469:	79 01                	jns    346c <__init_tls+0x17a>
    346b:	f4                   	hlt    
    346c:	5b                   	pop    %rbx
    346d:	c3                   	ret    

000000000000346e <__errno_location>:
    346e:	64 48 8b 04 25 00 00 	mov    %fs:0x0,%rax
    3475:	00 00 
    3477:	48 83 c0 34          	add    $0x34,%rax
    347b:	c3                   	ret    

000000000000347c <__strerror_l>:
    347c:	81 ff 83 00 00 00    	cmp    $0x83,%edi
    3482:	76 02                	jbe    3486 <__strerror_l+0xa>
    3484:	31 ff                	xor    %edi,%edi
    3486:	48 8d 05 b3 15 00 00 	lea    0x15b3(%rip),%rax        # 4a40 <errmsgidx>
    348d:	48 63 ff             	movslq %edi,%rdi
    3490:	48 8b 76 28          	mov    0x28(%rsi),%rsi
    3494:	0f b7 3c 78          	movzwl (%rax,%rdi,2),%edi
    3498:	48 8d 05 c1 16 00 00 	lea    0x16c1(%rip),%rax        # 4b60 <errmsgstr>
    349f:	48 01 c7             	add    %rax,%rdi
    34a2:	e9 d8 00 00 00       	jmp    357f <__lctrans>

00000000000034a7 <strerror>:
    34a7:	64 48 8b 04 25 00 00 	mov    %fs:0x0,%rax
    34ae:	00 00 
    34b0:	48 8b b0 a8 00 00 00 	mov    0xa8(%rax),%rsi
    34b7:	e9 c0 ff ff ff       	jmp    347c <__strerror_l>

00000000000034bc <_Exit>:
    34bc:	48 63 ff             	movslq %edi,%rdi
    34bf:	b8 e7 00 00 00       	mov    $0xe7,%eax
    34c4:	0f 05                	syscall 
    34c6:	ba 3c 00 00 00       	mov    $0x3c,%edx
    34cb:	48 89 d0             	mov    %rdx,%rax
    34ce:	0f 05                	syscall 
    34d0:	eb f9                	jmp    34cb <_Exit+0xf>
    34d2:	66 2e 0f 1f 84 00 00 	cs nopw 0x0(%rax,%rax,1)
    34d9:	00 00 00 
    34dc:	0f 1f 40 00          	nopl   0x0(%rax)

00000000000034e0 <__procfdname>:
    34e0:	48 8b 05 99 1d 00 00 	mov    0x1d99(%rip),%rax        # 5280 <errmsgstr+0x720>
    34e7:	c6 47 0e 00          	movb   $0x0,0xe(%rdi)
    34eb:	49 89 f8             	mov    %rdi,%r8
    34ee:	89 f1                	mov    %esi,%ecx
    34f0:	ba 64 2f 00 00       	mov    $0x2f64,%edx
    34f5:	c7 47 08 6c 66 2f 66 	movl   $0x662f666c,0x8(%rdi)
    34fc:	48 89 07             	mov    %rax,(%rdi)
    34ff:	89 f0                	mov    %esi,%eax
    3501:	66 89 57 0c          	mov    %dx,0xc(%rdi)
    3505:	ba 0e 00 00 00       	mov    $0xe,%edx
    350a:	bf cd cc cc cc       	mov    $0xcccccccd,%edi
    350f:	85 f6                	test   %esi,%esi
    3511:	74 5d                	je     3570 <__procfdname+0x90>
    3513:	0f 1f 44 00 00       	nopl   0x0(%rax,%rax,1)
    3518:	89 c0                	mov    %eax,%eax
    351a:	83 c2 01             	add    $0x1,%edx
    351d:	48 89 c6             	mov    %rax,%rsi
    3520:	48 0f af c7          	imul   %rdi,%rax
    3524:	48 c1 e8 23          	shr    $0x23,%rax
    3528:	83 fe 09             	cmp    $0x9,%esi
    352b:	77 eb                	ja     3518 <__procfdname+0x38>
    352d:	89 d0                	mov    %edx,%eax
    352f:	41 ba cd cc cc cc    	mov    $0xcccccccd,%r10d
    3535:	41 c6 04 00 00       	movb   $0x0,(%r8,%rax,1)
    353a:	66 0f 1f 44 00 00    	nopw   0x0(%rax,%rax,1)
    3540:	89 c8                	mov    %ecx,%eax
    3542:	89 ce                	mov    %ecx,%esi
    3544:	44 8d 4a ff          	lea    -0x1(%rdx),%r9d
    3548:	49 0f af c2          	imul   %r10,%rax
    354c:	4c 89 ca             	mov    %r9,%rdx
    354f:	48 c1 e8 23          	shr    $0x23,%rax
    3553:	8d 3c 80             	lea    (%rax,%rax,4),%edi
    3556:	01 ff                	add    %edi,%edi
    3558:	29 fe                	sub    %edi,%esi
    355a:	83 c6 30             	add    $0x30,%esi
    355d:	43 88 34 08          	mov    %sil,(%r8,%r9,1)
    3561:	89 ce                	mov    %ecx,%esi
    3563:	89 c1                	mov    %eax,%ecx
    3565:	83 fe 09             	cmp    $0x9,%esi
    3568:	77 d6                	ja     3540 <__procfdname+0x60>
    356a:	c3                   	ret    
    356b:	0f 1f 44 00 00       	nopl   0x0(%rax,%rax,1)
    3570:	b8 30 00 00 00       	mov    $0x30,%eax
    3575:	66 41 89 40 0e       	mov    %ax,0xe(%r8)
    357a:	c3                   	ret    

000000000000357b <__lctrans_impl>:
    357b:	48 89 f8             	mov    %rdi,%rax
    357e:	c3                   	ret    

000000000000357f <__lctrans>:
    357f:	e9 f7 ff ff ff       	jmp    357b <__lctrans_impl>

0000000000003584 <__lctrans_cur>:
    3584:	64 48 8b 04 25 00 00 	mov    %fs:0x0,%rax
    358b:	00 00 
    358d:	48 8b 80 a8 00 00 00 	mov    0xa8(%rax),%rax
    3594:	48 8b 70 28          	mov    0x28(%rax),%rsi
    3598:	e9 de ff ff ff       	jmp    357b <__lctrans_impl>

000000000000359d <__fpclassifyl>:
    359d:	48 8b 44 24 08       	mov    0x8(%rsp),%rax
    35a2:	48 8b 54 24 10       	mov    0x10(%rsp),%rdx
    35a7:	48 89 c1             	mov    %rax,%rcx
    35aa:	89 d6                	mov    %edx,%esi
    35ac:	81 e2 ff 7f 00 00    	and    $0x7fff,%edx
    35b2:	48 c1 e9 3f          	shr    $0x3f,%rcx
    35b6:	66 81 e6 ff 7f       	and    $0x7fff,%si
    35bb:	09 ca                	or     %ecx,%edx
    35bd:	75 0d                	jne    35cc <__fpclassifyl+0x2f>
    35bf:	48 83 f8 01          	cmp    $0x1,%rax
    35c3:	45 19 c0             	sbb    %r8d,%r8d
    35c6:	41 83 c0 03          	add    $0x3,%r8d
    35ca:	eb 21                	jmp    35ed <__fpclassifyl+0x50>
    35cc:	44 8d 04 8d 00 00 00 	lea    0x0(,%rcx,4),%r8d
    35d3:	00 
    35d4:	66 81 fe ff 7f       	cmp    $0x7fff,%si
    35d9:	75 12                	jne    35ed <__fpclassifyl+0x50>
    35db:	45 31 c0             	xor    %r8d,%r8d
    35de:	48 85 c9             	test   %rcx,%rcx
    35e1:	74 0a                	je     35ed <__fpclassifyl+0x50>
    35e3:	45 31 c0             	xor    %r8d,%r8d
    35e6:	48 01 c0             	add    %rax,%rax
    35e9:	41 0f 94 c0          	sete   %r8b
    35ed:	44 89 c0             	mov    %r8d,%eax
    35f0:	c3                   	ret    

00000000000035f1 <__signbitl>:
    35f1:	8b 44 24 10          	mov    0x10(%rsp),%eax
    35f5:	66 c1 e8 0f          	shr    $0xf,%ax
    35f9:	0f b7 c0             	movzwl %ax,%eax
    35fc:	c3                   	ret    

00000000000035fd <frexpl>:
    35fd:	53                   	push   %rbx
    35fe:	48 89 fb             	mov    %rdi,%rbx
    3601:	48 83 ec 10          	sub    $0x10,%rsp
    3605:	db 6c 24 20          	fldt   0x20(%rsp)
    3609:	48 8b 44 24 28       	mov    0x28(%rsp),%rax
    360e:	89 c1                	mov    %eax,%ecx
    3610:	d9 c0                	fld    %st(0)
    3612:	db 3c 24             	fstpt  (%rsp)
    3615:	66 81 e1 ff 7f       	and    $0x7fff,%cx
    361a:	75 36                	jne    3652 <frexpl+0x55>
    361c:	d9 ee                	fldz   
    361e:	d9 c9                	fxch   %st(1)
    3620:	df e9                	fucomip %st(1),%st
    3622:	dd d8                	fstp   %st(0)
    3624:	7a 02                	jp     3628 <frexpl+0x2b>
    3626:	74 22                	je     364a <frexpl+0x4d>
    3628:	db 6c 24 20          	fldt   0x20(%rsp)
    362c:	d8 0d 56 1c 00 00    	fmuls  0x1c56(%rip)        # 5288 <errmsgstr+0x728>
    3632:	51                   	push   %rcx
    3633:	48 89 df             	mov    %rbx,%rdi
    3636:	51                   	push   %rcx
    3637:	db 3c 24             	fstpt  (%rsp)
    363a:	e8 be ff ff ff       	call   35fd <frexpl>
    363f:	83 2b 78             	subl   $0x78,(%rbx)
    3642:	db 7c 24 30          	fstpt  0x30(%rsp)
    3646:	5e                   	pop    %rsi
    3647:	5f                   	pop    %rdi
    3648:	eb 30                	jmp    367a <frexpl+0x7d>
    364a:	c7 07 00 00 00 00    	movl   $0x0,(%rdi)
    3650:	eb 28                	jmp    367a <frexpl+0x7d>
    3652:	dd d8                	fstp   %st(0)
    3654:	0f b7 d1             	movzwl %cx,%edx
    3657:	66 81 f9 ff 7f       	cmp    $0x7fff,%cx
    365c:	74 1c                	je     367a <frexpl+0x7d>
    365e:	66 25 00 80          	and    $0x8000,%ax
    3662:	81 ea fe 3f 00 00    	sub    $0x3ffe,%edx
    3668:	66 0d fe 3f          	or     $0x3ffe,%ax
    366c:	89 17                	mov    %edx,(%rdi)
    366e:	66 89 44 24 08       	mov    %ax,0x8(%rsp)
    3673:	db 2c 24             	fldt   (%rsp)
    3676:	db 7c 24 20          	fstpt  0x20(%rsp)
    367a:	db 6c 24 20          	fldt   0x20(%rsp)
    367e:	48 83 c4 10          	add    $0x10,%rsp
    3682:	5b                   	pop    %rbx
    3683:	c3                   	ret    

0000000000003684 <wctomb>:
    3684:	48 85 ff             	test   %rdi,%rdi
    3687:	74 0a                	je     3693 <wctomb+0xf>
    3689:	50                   	push   %rax
    368a:	31 d2                	xor    %edx,%edx
    368c:	e8 0a 0c 00 00       	call   429b <wcrtomb>
    3691:	5a                   	pop    %rdx
    3692:	c3                   	ret    
    3693:	31 c0                	xor    %eax,%eax
    3695:	c3                   	ret    

0000000000003696 <__aio_atfork>:
    3696:	c3                   	ret    

0000000000003697 <_Fork>:
    3697:	41 54                	push   %r12
    3699:	4c 8d 25 98 32 20 00 	lea    0x203298(%rip),%r12        # 206938 <__abort_lock>
    36a0:	55                   	push   %rbp
    36a1:	53                   	push   %rbx
    36a2:	48 83 c4 80          	add    $0xffffffffffffff80,%rsp
    36a6:	48 89 e5             	mov    %rsp,%rbp
    36a9:	48 89 ef             	mov    %rbp,%rdi
    36ac:	e8 1e db ff ff       	call   11cf <__block_all_sigs>
    36b1:	83 cf ff             	or     $0xffffffff,%edi
    36b4:	e8 dd ff ff ff       	call   3696 <__aio_atfork>
    36b9:	4c 89 e7             	mov    %r12,%rdi
    36bc:	e8 40 f8 ff ff       	call   2f01 <__lock>
    36c1:	b8 39 00 00 00       	mov    $0x39,%eax
    36c6:	0f 05                	syscall 
    36c8:	48 89 c3             	mov    %rax,%rbx
    36cb:	85 c0                	test   %eax,%eax
    36cd:	75 56                	jne    3725 <_Fork+0x8e>
    36cf:	b8 ba 00 00 00       	mov    $0xba,%eax
    36d4:	64 48 8b 14 25 00 00 	mov    %fs:0x0,%rdx
    36db:	00 00 
    36dd:	0f 05                	syscall 
    36df:	48 c7 82 98 00 00 00 	movq   $0x0,0x98(%rdx)
    36e6:	00 00 00 00 
    36ea:	89 42 30             	mov    %eax,0x30(%rdx)
    36ed:	c7 05 39 32 20 00 00 	movl   $0x0,0x203239(%rip)        # 206930 <__thread_list_lock>
    36f4:	00 00 00 
    36f7:	8a 05 c6 2b 20 00    	mov    0x202bc6(%rip),%al        # 2062c3 <__libc+0x3>
    36fd:	48 c7 82 90 00 00 00 	movq   $0x0,0x90(%rdx)
    3704:	00 00 00 00 
    3708:	48 89 52 10          	mov    %rdx,0x10(%rdx)
    370c:	48 89 52 18          	mov    %rdx,0x18(%rdx)
    3710:	c7 05 aa 2b 20 00 00 	movl   $0x0,0x202baa(%rip)        # 2062c4 <__libc+0x4>
    3717:	00 00 00 
    371a:	84 c0                	test   %al,%al
    371c:	74 07                	je     3725 <_Fork+0x8e>
    371e:	c6 05 9e 2b 20 00 ff 	movb   $0xff,0x202b9e(%rip)        # 2062c3 <__libc+0x3>
    3725:	4c 89 e7             	mov    %r12,%rdi
    3728:	e8 86 f8 ff ff       	call   2fb3 <__unlock>
    372d:	31 ff                	xor    %edi,%edi
    372f:	85 db                	test   %ebx,%ebx
    3731:	40 0f 94 c7          	sete   %dil
    3735:	e8 5c ff ff ff       	call   3696 <__aio_atfork>
    373a:	48 89 ef             	mov    %rbp,%rdi
    373d:	e8 c1 da ff ff       	call   1203 <__restore_sigs>
    3742:	48 63 fb             	movslq %ebx,%rdi
    3745:	e8 d6 d7 ff ff       	call   f20 <__syscall_ret>
    374a:	48 83 ec 80          	sub    $0xffffffffffffff80,%rsp
    374e:	5b                   	pop    %rbx
    374f:	5d                   	pop    %rbp
    3750:	41 5c                	pop    %r12
    3752:	c3                   	ret    

0000000000003753 <__lockfile>:
    3753:	8b 87 8c 00 00 00    	mov    0x8c(%rdi),%eax
    3759:	64 48 8b 0c 25 00 00 	mov    %fs:0x0,%rcx
    3760:	00 00 
    3762:	8b 49 30             	mov    0x30(%rcx),%ecx
    3765:	25 ff ff ff bf       	and    $0xbfffffff,%eax
    376a:	39 c8                	cmp    %ecx,%eax
    376c:	0f 84 80 00 00 00    	je     37f2 <__lockfile+0x9f>
    3772:	48 89 fa             	mov    %rdi,%rdx
    3775:	31 c0                	xor    %eax,%eax
    3777:	48 8d bf 8c 00 00 00 	lea    0x8c(%rdi),%rdi
    377e:	f0 0f b1 8a 8c 00 00 	lock cmpxchg %ecx,0x8c(%rdx)
    3785:	00 
    3786:	85 c0                	test   %eax,%eax
    3788:	74 6d                	je     37f7 <__lockfile+0xa4>
    378a:	81 c9 00 00 00 40    	or     $0x40000000,%ecx
    3790:	55                   	push   %rbp
    3791:	45 31 c9             	xor    %r9d,%r9d
    3794:	bd 80 00 00 00       	mov    $0x80,%ebp
    3799:	53                   	push   %rbx
    379a:	41 89 c8             	mov    %ecx,%r8d
    379d:	bb ca 00 00 00       	mov    $0xca,%ebx
    37a2:	44 89 c8             	mov    %r9d,%eax
    37a5:	f0 44 0f b1 07       	lock cmpxchg %r8d,(%rdi)
    37aa:	89 c1                	mov    %eax,%ecx
    37ac:	85 c0                	test   %eax,%eax
    37ae:	75 08                	jne    37b8 <__lockfile+0x65>
    37b0:	b8 01 00 00 00       	mov    $0x1,%eax
    37b5:	5b                   	pop    %rbx
    37b6:	5d                   	pop    %rbp
    37b7:	c3                   	ret    
    37b8:	89 ca                	mov    %ecx,%edx
    37ba:	81 ca 00 00 00 40    	or     $0x40000000,%edx
    37c0:	0f ba e1 1e          	bt     $0x1e,%ecx
    37c4:	73 20                	jae    37e6 <__lockfile+0x93>
    37c6:	48 63 d2             	movslq %edx,%rdx
    37c9:	45 31 d2             	xor    %r10d,%r10d
    37cc:	48 89 d8             	mov    %rbx,%rax
    37cf:	48 89 ee             	mov    %rbp,%rsi
    37d2:	0f 05                	syscall 
    37d4:	48 83 f8 da          	cmp    $0xffffffffffffffda,%rax
    37d8:	75 c8                	jne    37a2 <__lockfile+0x4f>
    37da:	45 31 d2             	xor    %r10d,%r10d
    37dd:	31 f6                	xor    %esi,%esi
    37df:	48 89 d8             	mov    %rbx,%rax
    37e2:	0f 05                	syscall 
    37e4:	eb bc                	jmp    37a2 <__lockfile+0x4f>
    37e6:	89 c8                	mov    %ecx,%eax
    37e8:	f0 0f b1 17          	lock cmpxchg %edx,(%rdi)
    37ec:	39 c8                	cmp    %ecx,%eax
    37ee:	75 b2                	jne    37a2 <__lockfile+0x4f>
    37f0:	eb d4                	jmp    37c6 <__lockfile+0x73>
    37f2:	45 31 c0             	xor    %r8d,%r8d
    37f5:	eb 06                	jmp    37fd <__lockfile+0xaa>
    37f7:	41 b8 01 00 00 00    	mov    $0x1,%r8d
    37fd:	44 89 c0             	mov    %r8d,%eax
    3800:	c3                   	ret    

0000000000003801 <__unlockfile>:
    3801:	48 89 fa             	mov    %rdi,%rdx
    3804:	31 c0                	xor    %eax,%eax
    3806:	48 8d bf 8c 00 00 00 	lea    0x8c(%rdi),%rdi
    380d:	87 82 8c 00 00 00    	xchg   %eax,0x8c(%rdx)
    3813:	0f ba e0 1e          	bt     $0x1e,%eax
    3817:	73 23                	jae    383c <__unlockfile+0x3b>
    3819:	41 b8 ca 00 00 00    	mov    $0xca,%r8d
    381f:	ba 01 00 00 00       	mov    $0x1,%edx
    3824:	be 81 00 00 00       	mov    $0x81,%esi
    3829:	4c 89 c0             	mov    %r8,%rax
    382c:	0f 05                	syscall 
    382e:	48 83 f8 da          	cmp    $0xffffffffffffffda,%rax
    3832:	75 08                	jne    383c <__unlockfile+0x3b>
    3834:	4c 89 c0             	mov    %r8,%rax
    3837:	48 89 d6             	mov    %rdx,%rsi
    383a:	0f 05                	syscall 
    383c:	c3                   	ret    

000000000000383d <dummy>:
    383d:	89 f8                	mov    %edi,%eax
    383f:	c3                   	ret    

0000000000003840 <__stdio_close>:
    3840:	50                   	push   %rax
    3841:	8b 7f 78             	mov    0x78(%rdi),%edi
    3844:	e8 1d f9 ff ff       	call   3166 <__aio_close>
    3849:	48 63 f8             	movslq %eax,%rdi
    384c:	b8 03 00 00 00       	mov    $0x3,%eax
    3851:	0f 05                	syscall 
    3853:	48 89 c7             	mov    %rax,%rdi
    3856:	e8 c5 d6 ff ff       	call   f20 <__syscall_ret>
    385b:	5a                   	pop    %rdx
    385c:	c3                   	ret    

000000000000385d <__stdio_seek>:
    385d:	8b 7f 78             	mov    0x78(%rdi),%edi
    3860:	e9 66 f9 ff ff       	jmp    31cb <lseek>

0000000000003865 <__stdio_write>:
    3865:	41 57                	push   %r15
    3867:	41 bf 02 00 00 00    	mov    $0x2,%r15d
    386d:	41 56                	push   %r14
    386f:	41 55                	push   %r13
    3871:	41 bd 14 00 00 00    	mov    $0x14,%r13d
    3877:	41 54                	push   %r12
    3879:	49 89 d4             	mov    %rdx,%r12
    387c:	55                   	push   %rbp
    387d:	53                   	push   %rbx
    387e:	48 89 fb             	mov    %rdi,%rbx
    3881:	48 83 ec 28          	sub    $0x28,%rsp
    3885:	48 8b 47 38          	mov    0x38(%rdi),%rax
    3889:	4c 8b 77 28          	mov    0x28(%rdi),%r14
    388d:	48 89 74 24 10       	mov    %rsi,0x10(%rsp)
    3892:	48 89 e5             	mov    %rsp,%rbp
    3895:	48 89 04 24          	mov    %rax,(%rsp)
    3899:	49 29 c6             	sub    %rax,%r14
    389c:	48 89 54 24 18       	mov    %rdx,0x18(%rsp)
    38a1:	4c 89 74 24 08       	mov    %r14,0x8(%rsp)
    38a6:	49 01 d6             	add    %rdx,%r14
    38a9:	48 63 7b 78          	movslq 0x78(%rbx),%rdi
    38ad:	49 63 d7             	movslq %r15d,%rdx
    38b0:	4c 89 e8             	mov    %r13,%rax
    38b3:	48 89 ee             	mov    %rbp,%rsi
    38b6:	0f 05                	syscall 
    38b8:	48 89 c7             	mov    %rax,%rdi
    38bb:	e8 60 d6 ff ff       	call   f20 <__syscall_ret>
    38c0:	49 39 c6             	cmp    %rax,%r14
    38c3:	75 19                	jne    38de <__stdio_write+0x79>
    38c5:	48 8b 43 58          	mov    0x58(%rbx),%rax
    38c9:	48 8b 53 60          	mov    0x60(%rbx),%rdx
    38cd:	48 01 c2             	add    %rax,%rdx
    38d0:	48 89 43 38          	mov    %rax,0x38(%rbx)
    38d4:	48 89 53 20          	mov    %rdx,0x20(%rbx)
    38d8:	48 89 43 28          	mov    %rax,0x28(%rbx)
    38dc:	eb 52                	jmp    3930 <__stdio_write+0xcb>
    38de:	48 85 c0             	test   %rax,%rax
    38e1:	79 27                	jns    390a <__stdio_write+0xa5>
    38e3:	83 0b 20             	orl    $0x20,(%rbx)
    38e6:	48 c7 43 20 00 00 00 	movq   $0x0,0x20(%rbx)
    38ed:	00 
    38ee:	48 c7 43 38 00 00 00 	movq   $0x0,0x38(%rbx)
    38f5:	00 
    38f6:	48 c7 43 28 00 00 00 	movq   $0x0,0x28(%rbx)
    38fd:	00 
    38fe:	41 83 ff 02          	cmp    $0x2,%r15d
    3902:	74 29                	je     392d <__stdio_write+0xc8>
    3904:	4c 2b 65 08          	sub    0x8(%rbp),%r12
    3908:	eb 26                	jmp    3930 <__stdio_write+0xcb>
    390a:	48 8b 55 08          	mov    0x8(%rbp),%rdx
    390e:	49 29 c6             	sub    %rax,%r14
    3911:	48 39 d0             	cmp    %rdx,%rax
    3914:	76 0a                	jbe    3920 <__stdio_write+0xbb>
    3916:	48 29 d0             	sub    %rdx,%rax
    3919:	48 83 c5 10          	add    $0x10,%rbp
    391d:	41 ff cf             	dec    %r15d
    3920:	48 01 45 00          	add    %rax,0x0(%rbp)
    3924:	48 29 45 08          	sub    %rax,0x8(%rbp)
    3928:	e9 7c ff ff ff       	jmp    38a9 <__stdio_write+0x44>
    392d:	45 31 e4             	xor    %r12d,%r12d
    3930:	48 83 c4 28          	add    $0x28,%rsp
    3934:	4c 89 e0             	mov    %r12,%rax
    3937:	5b                   	pop    %rbx
    3938:	5d                   	pop    %rbp
    3939:	41 5c                	pop    %r12
    393b:	41 5d                	pop    %r13
    393d:	41 5e                	pop    %r14
    393f:	41 5f                	pop    %r15
    3941:	c3                   	ret    

0000000000003942 <__stdout_write>:
    3942:	48 8d 05 1c ff ff ff 	lea    -0xe4(%rip),%rax        # 3865 <__stdio_write>
    3949:	49 89 f8             	mov    %rdi,%r8
    394c:	49 89 f1             	mov    %rsi,%r9
    394f:	49 89 d2             	mov    %rdx,%r10
    3952:	48 83 ec 18          	sub    $0x18,%rsp
    3956:	48 89 47 48          	mov    %rax,0x48(%rdi)
    395a:	f6 07 40             	testb  $0x40,(%rdi)
    395d:	75 25                	jne    3984 <__stdout_write+0x42>
    395f:	48 63 7f 78          	movslq 0x78(%rdi),%rdi
    3963:	48 8d 54 24 08       	lea    0x8(%rsp),%rdx
    3968:	b8 10 00 00 00       	mov    $0x10,%eax
    396d:	be 13 54 00 00       	mov    $0x5413,%esi
    3972:	0f 05                	syscall 
    3974:	48 85 c0             	test   %rax,%rax
    3977:	74 0b                	je     3984 <__stdout_write+0x42>
    3979:	41 c7 80 90 00 00 00 	movl   $0xffffffff,0x90(%r8)
    3980:	ff ff ff ff 
    3984:	4c 89 d2             	mov    %r10,%rdx
    3987:	4c 89 ce             	mov    %r9,%rsi
    398a:	4c 89 c7             	mov    %r8,%rdi
    398d:	e8 d3 fe ff ff       	call   3865 <__stdio_write>
    3992:	48 83 c4 18          	add    $0x18,%rsp
    3996:	c3                   	ret    

0000000000003997 <__towrite>:
    3997:	8b 97 88 00 00 00    	mov    0x88(%rdi),%edx
    399d:	8d 42 ff             	lea    -0x1(%rdx),%eax
    39a0:	09 d0                	or     %edx,%eax
    39a2:	89 87 88 00 00 00    	mov    %eax,0x88(%rdi)
    39a8:	8b 07                	mov    (%rdi),%eax
    39aa:	a8 08                	test   $0x8,%al
    39ac:	74 09                	je     39b7 <__towrite+0x20>
    39ae:	83 c8 20             	or     $0x20,%eax
    39b1:	89 07                	mov    %eax,(%rdi)
    39b3:	83 c8 ff             	or     $0xffffffff,%eax
    39b6:	c3                   	ret    
    39b7:	48 8b 47 58          	mov    0x58(%rdi),%rax
    39bb:	48 c7 47 10 00 00 00 	movq   $0x0,0x10(%rdi)
    39c2:	00 
    39c3:	48 c7 47 08 00 00 00 	movq   $0x0,0x8(%rdi)
    39ca:	00 
    39cb:	48 89 47 38          	mov    %rax,0x38(%rdi)
    39cf:	48 89 47 28          	mov    %rax,0x28(%rdi)
    39d3:	48 03 47 60          	add    0x60(%rdi),%rax
    39d7:	48 89 47 20          	mov    %rax,0x20(%rdi)
    39db:	31 c0                	xor    %eax,%eax
    39dd:	c3                   	ret    

00000000000039de <__towrite_needs_stdio_exit>:
    39de:	e9 88 0a 00 00       	jmp    446b <__stdio_exit>

00000000000039e3 <locking_putc>:
    39e3:	41 54                	push   %r12
    39e5:	31 c0                	xor    %eax,%eax
    39e7:	4c 8d a6 8c 00 00 00 	lea    0x8c(%rsi),%r12
    39ee:	ba ff ff ff 3f       	mov    $0x3fffffff,%edx
    39f3:	55                   	push   %rbp
    39f4:	89 fd                	mov    %edi,%ebp
    39f6:	53                   	push   %rbx
    39f7:	48 89 f3             	mov    %rsi,%rbx
    39fa:	f0 0f b1 96 8c 00 00 	lock cmpxchg %edx,0x8c(%rsi)
    3a01:	00 
    3a02:	85 c0                	test   %eax,%eax
    3a04:	74 08                	je     3a0e <locking_putc+0x2b>
    3a06:	48 89 f7             	mov    %rsi,%rdi
    3a09:	e8 45 fd ff ff       	call   3753 <__lockfile>
    3a0e:	44 0f b6 c5          	movzbl %bpl,%r8d
    3a12:	44 39 83 90 00 00 00 	cmp    %r8d,0x90(%rbx)
    3a19:	74 17                	je     3a32 <locking_putc+0x4f>
    3a1b:	48 8b 43 28          	mov    0x28(%rbx),%rax
    3a1f:	48 3b 43 20          	cmp    0x20(%rbx),%rax
    3a23:	74 0d                	je     3a32 <locking_putc+0x4f>
    3a25:	48 8d 50 01          	lea    0x1(%rax),%rdx
    3a29:	48 89 53 28          	mov    %rdx,0x28(%rbx)
    3a2d:	40 88 28             	mov    %bpl,(%rax)
    3a30:	eb 0e                	jmp    3a40 <locking_putc+0x5d>
    3a32:	44 89 c6             	mov    %r8d,%esi
    3a35:	48 89 df             	mov    %rbx,%rdi
    3a38:	e8 79 09 00 00       	call   43b6 <__overflow>
    3a3d:	41 89 c0             	mov    %eax,%r8d
    3a40:	31 c0                	xor    %eax,%eax
    3a42:	87 83 8c 00 00 00    	xchg   %eax,0x8c(%rbx)
    3a48:	0f ba e0 1e          	bt     $0x1e,%eax
    3a4c:	73 26                	jae    3a74 <locking_putc+0x91>
    3a4e:	41 b9 ca 00 00 00    	mov    $0xca,%r9d
    3a54:	ba 01 00 00 00       	mov    $0x1,%edx
    3a59:	be 81 00 00 00       	mov    $0x81,%esi
    3a5e:	4c 89 e7             	mov    %r12,%rdi
    3a61:	4c 89 c8             	mov    %r9,%rax
    3a64:	0f 05                	syscall 
    3a66:	48 83 f8 da          	cmp    $0xffffffffffffffda,%rax
    3a6a:	75 08                	jne    3a74 <locking_putc+0x91>
    3a6c:	4c 89 c8             	mov    %r9,%rax
    3a6f:	48 89 d6             	mov    %rdx,%rsi
    3a72:	0f 05                	syscall 
    3a74:	5b                   	pop    %rbx
    3a75:	44 89 c0             	mov    %r8d,%eax
    3a78:	5d                   	pop    %rbp
    3a79:	41 5c                	pop    %r12
    3a7b:	c3                   	ret    

0000000000003a7c <fputc>:
    3a7c:	8b 86 8c 00 00 00    	mov    0x8c(%rsi),%eax
    3a82:	41 89 f8             	mov    %edi,%r8d
    3a85:	48 89 f7             	mov    %rsi,%rdi
    3a88:	85 c0                	test   %eax,%eax
    3a8a:	78 15                	js     3aa1 <fputc+0x25>
    3a8c:	74 30                	je     3abe <fputc+0x42>
    3a8e:	25 ff ff ff bf       	and    $0xbfffffff,%eax
    3a93:	64 48 8b 14 25 00 00 	mov    %fs:0x0,%rdx
    3a9a:	00 00 
    3a9c:	3b 42 30             	cmp    0x30(%rdx),%eax
    3a9f:	75 1d                	jne    3abe <fputc+0x42>
    3aa1:	41 0f b6 c0          	movzbl %r8b,%eax
    3aa5:	3b 87 90 00 00 00    	cmp    0x90(%rdi),%eax
    3aab:	74 0a                	je     3ab7 <fputc+0x3b>
    3aad:	48 8b 57 28          	mov    0x28(%rdi),%rdx
    3ab1:	48 3b 57 20          	cmp    0x20(%rdi),%rdx
    3ab5:	75 12                	jne    3ac9 <fputc+0x4d>
    3ab7:	89 c6                	mov    %eax,%esi
    3ab9:	e9 f8 08 00 00       	jmp    43b6 <__overflow>
    3abe:	48 89 fe             	mov    %rdi,%rsi
    3ac1:	44 89 c7             	mov    %r8d,%edi
    3ac4:	e9 1a ff ff ff       	jmp    39e3 <locking_putc>
    3ac9:	48 8d 4a 01          	lea    0x1(%rdx),%rcx
    3acd:	48 89 4f 28          	mov    %rcx,0x28(%rdi)
    3ad1:	44 88 02             	mov    %r8b,(%rdx)
    3ad4:	c3                   	ret    

0000000000003ad5 <__fwritex>:
    3ad5:	41 56                	push   %r14
    3ad7:	41 55                	push   %r13
    3ad9:	49 89 fd             	mov    %rdi,%r13
    3adc:	41 54                	push   %r12
    3ade:	49 89 f4             	mov    %rsi,%r12
    3ae1:	55                   	push   %rbp
    3ae2:	48 89 d5             	mov    %rdx,%rbp
    3ae5:	53                   	push   %rbx
    3ae6:	48 83 7a 20 00       	cmpq   $0x0,0x20(%rdx)
    3aeb:	74 24                	je     3b11 <__fwritex+0x3c>
    3aed:	48 8b 45 20          	mov    0x20(%rbp),%rax
    3af1:	48 2b 45 28          	sub    0x28(%rbp),%rax
    3af5:	4c 39 e0             	cmp    %r12,%rax
    3af8:	73 27                	jae    3b21 <__fwritex+0x4c>
    3afa:	5b                   	pop    %rbx
    3afb:	48 8b 45 48          	mov    0x48(%rbp),%rax
    3aff:	4c 89 e2             	mov    %r12,%rdx
    3b02:	4c 89 ee             	mov    %r13,%rsi
    3b05:	48 89 ef             	mov    %rbp,%rdi
    3b08:	5d                   	pop    %rbp
    3b09:	41 5c                	pop    %r12
    3b0b:	41 5d                	pop    %r13
    3b0d:	41 5e                	pop    %r14
    3b0f:	ff e0                	jmp    *%rax
    3b11:	48 89 d7             	mov    %rdx,%rdi
    3b14:	e8 7e fe ff ff       	call   3997 <__towrite>
    3b19:	85 c0                	test   %eax,%eax
    3b1b:	74 d0                	je     3aed <__fwritex+0x18>
    3b1d:	31 c0                	xor    %eax,%eax
    3b1f:	eb 59                	jmp    3b7a <__fwritex+0xa5>
    3b21:	83 bd 90 00 00 00 00 	cmpl   $0x0,0x90(%rbp)
    3b28:	4c 89 e3             	mov    %r12,%rbx
    3b2b:	78 16                	js     3b43 <__fwritex+0x6e>
    3b2d:	48 85 db             	test   %rbx,%rbx
    3b30:	74 11                	je     3b43 <__fwritex+0x6e>
    3b32:	41 80 7c 1d ff 0a    	cmpb   $0xa,-0x1(%r13,%rbx,1)
    3b38:	48 8d 43 ff          	lea    -0x1(%rbx),%rax
    3b3c:	74 20                	je     3b5e <__fwritex+0x89>
    3b3e:	48 89 c3             	mov    %rax,%rbx
    3b41:	eb ea                	jmp    3b2d <__fwritex+0x58>
    3b43:	4d 89 e6             	mov    %r12,%r14
    3b46:	48 8b 7d 28          	mov    0x28(%rbp),%rdi
    3b4a:	4c 89 f2             	mov    %r14,%rdx
    3b4d:	4c 89 ee             	mov    %r13,%rsi
    3b50:	e8 70 01 00 00       	call   3cc5 <memcpy>
    3b55:	4c 01 75 28          	add    %r14,0x28(%rbp)
    3b59:	4c 89 e0             	mov    %r12,%rax
    3b5c:	eb 1c                	jmp    3b7a <__fwritex+0xa5>
    3b5e:	48 89 da             	mov    %rbx,%rdx
    3b61:	4c 89 ee             	mov    %r13,%rsi
    3b64:	48 89 ef             	mov    %rbp,%rdi
    3b67:	ff 55 48             	call   *0x48(%rbp)
    3b6a:	48 39 c3             	cmp    %rax,%rbx
    3b6d:	77 0b                	ja     3b7a <__fwritex+0xa5>
    3b6f:	4d 89 e6             	mov    %r12,%r14
    3b72:	49 01 dd             	add    %rbx,%r13
    3b75:	49 29 de             	sub    %rbx,%r14
    3b78:	eb cc                	jmp    3b46 <__fwritex+0x71>
    3b7a:	5b                   	pop    %rbx
    3b7b:	5d                   	pop    %rbp
    3b7c:	41 5c                	pop    %r12
    3b7e:	41 5d                	pop    %r13
    3b80:	41 5e                	pop    %r14
    3b82:	c3                   	ret    

0000000000003b83 <fwrite>:
    3b83:	41 57                	push   %r15
    3b85:	31 c0                	xor    %eax,%eax
    3b87:	41 56                	push   %r14
    3b89:	49 89 f6             	mov    %rsi,%r14
    3b8c:	41 55                	push   %r13
    3b8e:	4c 0f af f2          	imul   %rdx,%r14
    3b92:	48 85 f6             	test   %rsi,%rsi
    3b95:	49 89 fd             	mov    %rdi,%r13
    3b98:	41 54                	push   %r12
    3b9a:	49 89 d4             	mov    %rdx,%r12
    3b9d:	55                   	push   %rbp
    3b9e:	4c 0f 44 e0          	cmove  %rax,%r12
    3ba2:	48 89 cd             	mov    %rcx,%rbp
    3ba5:	45 31 ff             	xor    %r15d,%r15d
    3ba8:	53                   	push   %rbx
    3ba9:	48 89 f3             	mov    %rsi,%rbx
    3bac:	41 50                	push   %r8
    3bae:	8b 81 8c 00 00 00    	mov    0x8c(%rcx),%eax
    3bb4:	85 c0                	test   %eax,%eax
    3bb6:	78 0b                	js     3bc3 <fwrite+0x40>
    3bb8:	48 89 cf             	mov    %rcx,%rdi
    3bbb:	e8 93 fb ff ff       	call   3753 <__lockfile>
    3bc0:	41 89 c7             	mov    %eax,%r15d
    3bc3:	4c 89 ef             	mov    %r13,%rdi
    3bc6:	48 89 ea             	mov    %rbp,%rdx
    3bc9:	4c 89 f6             	mov    %r14,%rsi
    3bcc:	e8 04 ff ff ff       	call   3ad5 <__fwritex>
    3bd1:	49 89 c5             	mov    %rax,%r13
    3bd4:	45 85 ff             	test   %r15d,%r15d
    3bd7:	74 08                	je     3be1 <fwrite+0x5e>
    3bd9:	48 89 ef             	mov    %rbp,%rdi
    3bdc:	e8 20 fc ff ff       	call   3801 <__unlockfile>
    3be1:	4d 39 ee             	cmp    %r13,%r14
    3be4:	74 0b                	je     3bf1 <fwrite+0x6e>
    3be6:	4c 89 e8             	mov    %r13,%rax
    3be9:	31 d2                	xor    %edx,%edx
    3beb:	48 f7 f3             	div    %rbx
    3bee:	49 89 c4             	mov    %rax,%r12
    3bf1:	5a                   	pop    %rdx
    3bf2:	4c 89 e0             	mov    %r12,%rax
    3bf5:	5b                   	pop    %rbx
    3bf6:	5d                   	pop    %rbp
    3bf7:	41 5c                	pop    %r12
    3bf9:	41 5d                	pop    %r13
    3bfb:	41 5e                	pop    %r14
    3bfd:	41 5f                	pop    %r15
    3bff:	c3                   	ret    

0000000000003c00 <memchr>:
    3c00:	48 89 f8             	mov    %rdi,%rax
    3c03:	44 0f b6 d6          	movzbl %sil,%r10d
    3c07:	a8 07                	test   $0x7,%al
    3c09:	75 19                	jne    3c24 <memchr+0x24>
    3c0b:	eb 23                	jmp    3c30 <memchr+0x30>
    3c0d:	0f 1f 00             	nopl   (%rax)
    3c10:	0f b6 08             	movzbl (%rax),%ecx
    3c13:	44 39 d1             	cmp    %r10d,%ecx
    3c16:	74 7b                	je     3c93 <memchr+0x93>
    3c18:	48 83 c0 01          	add    $0x1,%rax
    3c1c:	48 83 ea 01          	sub    $0x1,%rdx
    3c20:	a8 07                	test   $0x7,%al
    3c22:	74 0c                	je     3c30 <memchr+0x30>
    3c24:	48 85 d2             	test   %rdx,%rdx
    3c27:	75 e7                	jne    3c10 <memchr+0x10>
    3c29:	45 31 c0             	xor    %r8d,%r8d
    3c2c:	4c 89 c0             	mov    %r8,%rax
    3c2f:	c3                   	ret    
    3c30:	45 31 c0             	xor    %r8d,%r8d
    3c33:	48 85 d2             	test   %rdx,%rdx
    3c36:	74 f4                	je     3c2c <memchr+0x2c>
    3c38:	0f b6 08             	movzbl (%rax),%ecx
    3c3b:	44 39 d1             	cmp    %r10d,%ecx
    3c3e:	74 53                	je     3c93 <memchr+0x93>
    3c40:	48 b9 01 01 01 01 01 	movabs $0x101010101010101,%rcx
    3c47:	01 01 01 
    3c4a:	49 63 fa             	movslq %r10d,%rdi
    3c4d:	49 b9 ff fe fe fe fe 	movabs $0xfefefefefefefeff,%r9
    3c54:	fe fe fe 
    3c57:	49 b8 80 80 80 80 80 	movabs $0x8080808080808080,%r8
    3c5e:	80 80 80 
    3c61:	48 0f af f9          	imul   %rcx,%rdi
    3c65:	48 83 fa 07          	cmp    $0x7,%rdx
    3c69:	77 13                	ja     3c7e <memchr+0x7e>
    3c6b:	eb 26                	jmp    3c93 <memchr+0x93>
    3c6d:	0f 1f 00             	nopl   (%rax)
    3c70:	48 83 ea 08          	sub    $0x8,%rdx
    3c74:	48 83 c0 08          	add    $0x8,%rax
    3c78:	48 83 fa 07          	cmp    $0x7,%rdx
    3c7c:	76 39                	jbe    3cb7 <memchr+0xb7>
    3c7e:	48 8b 08             	mov    (%rax),%rcx
    3c81:	48 31 f9             	xor    %rdi,%rcx
    3c84:	4a 8d 34 09          	lea    (%rcx,%r9,1),%rsi
    3c88:	48 f7 d1             	not    %rcx
    3c8b:	48 21 f1             	and    %rsi,%rcx
    3c8e:	4c 85 c1             	test   %r8,%rcx
    3c91:	74 dd                	je     3c70 <memchr+0x70>
    3c93:	49 89 c0             	mov    %rax,%r8
    3c96:	48 01 c2             	add    %rax,%rdx
    3c99:	0f 1f 80 00 00 00 00 	nopl   0x0(%rax)
    3ca0:	41 0f b6 00          	movzbl (%r8),%eax
    3ca4:	44 39 d0             	cmp    %r10d,%eax
    3ca7:	74 83                	je     3c2c <memchr+0x2c>
    3ca9:	49 83 c0 01          	add    $0x1,%r8
    3cad:	49 39 d0             	cmp    %rdx,%r8
    3cb0:	75 ee                	jne    3ca0 <memchr+0xa0>
    3cb2:	e9 72 ff ff ff       	jmp    3c29 <memchr+0x29>
    3cb7:	45 31 c0             	xor    %r8d,%r8d
    3cba:	48 85 d2             	test   %rdx,%rdx
    3cbd:	0f 84 69 ff ff ff    	je     3c2c <memchr+0x2c>
    3cc3:	eb ce                	jmp    3c93 <memchr+0x93>

0000000000003cc5 <memcpy>:
    3cc5:	48 89 f8             	mov    %rdi,%rax
    3cc8:	48 83 fa 08          	cmp    $0x8,%rdx
    3ccc:	72 14                	jb     3ce2 <memcpy+0x1d>
    3cce:	f7 c7 07 00 00 00    	test   $0x7,%edi
    3cd4:	74 0c                	je     3ce2 <memcpy+0x1d>
    3cd6:	a4                   	movsb  %ds:(%rsi),%es:(%rdi)
    3cd7:	48 ff ca             	dec    %rdx
    3cda:	f7 c7 07 00 00 00    	test   $0x7,%edi
    3ce0:	75 f4                	jne    3cd6 <memcpy+0x11>
    3ce2:	48 89 d1             	mov    %rdx,%rcx
    3ce5:	48 c1 e9 03          	shr    $0x3,%rcx
    3ce9:	f3 48 a5             	rep movsq %ds:(%rsi),%es:(%rdi)
    3cec:	83 e2 07             	and    $0x7,%edx
    3cef:	74 05                	je     3cf6 <memcpy+0x31>
    3cf1:	a4                   	movsb  %ds:(%rsi),%es:(%rdi)
    3cf2:	ff ca                	dec    %edx
    3cf4:	75 fb                	jne    3cf1 <memcpy+0x2c>
    3cf6:	c3                   	ret    

0000000000003cf7 <__timedwait_cp>:
    3cf7:	41 56                	push   %r14
    3cf9:	41 55                	push   %r13
    3cfb:	45 89 c5             	mov    %r8d,%r13d
    3cfe:	41 54                	push   %r12
    3d00:	4c 63 e6             	movslq %esi,%r12
    3d03:	55                   	push   %rbp
    3d04:	48 89 fd             	mov    %rdi,%rbp
    3d07:	53                   	push   %rbx
    3d08:	48 89 cb             	mov    %rcx,%rbx
    3d0b:	48 83 ec 10          	sub    $0x10,%rsp
    3d0f:	48 85 c9             	test   %rcx,%rcx
    3d12:	74 65                	je     3d79 <__timedwait_cp+0x82>
    3d14:	48 81 79 08 ff c9 9a 	cmpq   $0x3b9ac9ff,0x8(%rcx)
    3d1b:	3b 
    3d1c:	76 0a                	jbe    3d28 <__timedwait_cp+0x31>
    3d1e:	b8 16 00 00 00       	mov    $0x16,%eax
    3d23:	e9 d4 00 00 00       	jmp    3dfc <__timedwait_cp+0x105>
    3d28:	49 89 e6             	mov    %rsp,%r14
    3d2b:	89 d7                	mov    %edx,%edi
    3d2d:	4c 89 f6             	mov    %r14,%rsi
    3d30:	e8 38 02 00 00       	call   3f6d <clock_gettime>
    3d35:	85 c0                	test   %eax,%eax
    3d37:	75 e5                	jne    3d1e <__timedwait_cp+0x27>
    3d39:	48 8b 13             	mov    (%rbx),%rdx
    3d3c:	48 8b 43 08          	mov    0x8(%rbx),%rax
    3d40:	48 2b 14 24          	sub    (%rsp),%rdx
    3d44:	48 2b 44 24 08       	sub    0x8(%rsp),%rax
    3d49:	48 89 14 24          	mov    %rdx,(%rsp)
    3d4d:	48 89 44 24 08       	mov    %rax,0x8(%rsp)
    3d52:	79 12                	jns    3d66 <__timedwait_cp+0x6f>
    3d54:	48 ff ca             	dec    %rdx
    3d57:	48 05 00 ca 9a 3b    	add    $0x3b9aca00,%rax
    3d5d:	48 89 14 24          	mov    %rdx,(%rsp)
    3d61:	48 89 44 24 08       	mov    %rax,0x8(%rsp)
    3d66:	48 83 3c 24 00       	cmpq   $0x0,(%rsp)
    3d6b:	b8 6e 00 00 00       	mov    $0x6e,%eax
    3d70:	0f 88 86 00 00 00    	js     3dfc <__timedwait_cp+0x105>
    3d76:	4c 89 f3             	mov    %r14,%rbx
    3d79:	31 d2                	xor    %edx,%edx
    3d7b:	45 85 ed             	test   %r13d,%r13d
    3d7e:	41 51                	push   %r9
    3d80:	49 89 d8             	mov    %rbx,%r8
    3d83:	6a 00                	push   $0x0
    3d85:	0f 95 c2             	setne  %dl
    3d88:	4c 89 e1             	mov    %r12,%rcx
    3d8b:	45 31 c9             	xor    %r9d,%r9d
    3d8e:	48 c1 e2 07          	shl    $0x7,%rdx
    3d92:	48 89 ee             	mov    %rbp,%rsi
    3d95:	bf ca 00 00 00       	mov    $0xca,%edi
    3d9a:	e8 68 f2 ff ff       	call   3007 <__syscall_cp>
    3d9f:	41 5a                	pop    %r10
    3da1:	41 5b                	pop    %r11
    3da3:	83 f8 da             	cmp    $0xffffffda,%eax
    3da6:	75 1e                	jne    3dc6 <__timedwait_cp+0xcf>
    3da8:	56                   	push   %rsi
    3da9:	49 89 d8             	mov    %rbx,%r8
    3dac:	bf ca 00 00 00       	mov    $0xca,%edi
    3db1:	45 31 c9             	xor    %r9d,%r9d
    3db4:	6a 00                	push   $0x0
    3db6:	4c 89 e1             	mov    %r12,%rcx
    3db9:	31 d2                	xor    %edx,%edx
    3dbb:	48 89 ee             	mov    %rbp,%rsi
    3dbe:	e8 44 f2 ff ff       	call   3007 <__syscall_cp>
    3dc3:	5f                   	pop    %rdi
    3dc4:	41 58                	pop    %r8
    3dc6:	83 f8 fc             	cmp    $0xfffffffc,%eax
    3dc9:	74 20                	je     3deb <__timedwait_cp+0xf4>
    3dcb:	83 f8 92             	cmp    $0xffffff92,%eax
    3dce:	74 12                	je     3de2 <__timedwait_cp+0xeb>
    3dd0:	83 f8 83             	cmp    $0xffffff83,%eax
    3dd3:	ba 7d 00 00 00       	mov    $0x7d,%edx
    3dd8:	b8 00 00 00 00       	mov    $0x0,%eax
    3ddd:	0f 44 c2             	cmove  %edx,%eax
    3de0:	eb 1a                	jmp    3dfc <__timedwait_cp+0x105>
    3de2:	83 f8 fc             	cmp    $0xfffffffc,%eax
    3de5:	74 04                	je     3deb <__timedwait_cp+0xf4>
    3de7:	f7 d8                	neg    %eax
    3de9:	eb 11                	jmp    3dfc <__timedwait_cp+0x105>
    3deb:	8b 05 43 2b 20 00    	mov    0x202b43(%rip),%eax        # 206934 <__eintr_valid_flag>
    3df1:	85 c0                	test   %eax,%eax
    3df3:	0f 95 c0             	setne  %al
    3df6:	0f b6 c0             	movzbl %al,%eax
    3df9:	c1 e0 02             	shl    $0x2,%eax
    3dfc:	48 83 c4 10          	add    $0x10,%rsp
    3e00:	5b                   	pop    %rbx
    3e01:	5d                   	pop    %rbp
    3e02:	41 5c                	pop    %r12
    3e04:	41 5d                	pop    %r13
    3e06:	41 5e                	pop    %r14
    3e08:	c3                   	ret    

0000000000003e09 <__timedwait>:
    3e09:	41 54                	push   %r12
    3e0b:	49 89 fc             	mov    %rdi,%r12
    3e0e:	bf 01 00 00 00       	mov    $0x1,%edi
    3e13:	55                   	push   %rbp
    3e14:	89 f5                	mov    %esi,%ebp
    3e16:	48 83 ec 28          	sub    $0x28,%rsp
    3e1a:	48 8d 74 24 1c       	lea    0x1c(%rsp),%rsi
    3e1f:	89 54 24 0c          	mov    %edx,0xc(%rsp)
    3e23:	48 89 0c 24          	mov    %rcx,(%rsp)
    3e27:	44 89 44 24 08       	mov    %r8d,0x8(%rsp)
    3e2c:	e8 bd 00 00 00       	call   3eee <pthread_setcancelstate>
    3e31:	44 8b 44 24 08       	mov    0x8(%rsp),%r8d
    3e36:	48 8b 0c 24          	mov    (%rsp),%rcx
    3e3a:	89 ee                	mov    %ebp,%esi
    3e3c:	8b 54 24 0c          	mov    0xc(%rsp),%edx
    3e40:	4c 89 e7             	mov    %r12,%rdi
    3e43:	e8 af fe ff ff       	call   3cf7 <__timedwait_cp>
    3e48:	8b 7c 24 1c          	mov    0x1c(%rsp),%edi
    3e4c:	31 f6                	xor    %esi,%esi
    3e4e:	41 89 c4             	mov    %eax,%r12d
    3e51:	e8 98 00 00 00       	call   3eee <pthread_setcancelstate>
    3e56:	48 83 c4 28          	add    $0x28,%rsp
    3e5a:	44 89 e0             	mov    %r12d,%eax
    3e5d:	5d                   	pop    %rbp
    3e5e:	41 5c                	pop    %r12
    3e60:	c3                   	ret    

0000000000003e61 <pthread_rwlock_timedwrlock>:
    3e61:	55                   	push   %rbp
    3e62:	48 89 f5             	mov    %rsi,%rbp
    3e65:	53                   	push   %rbx
    3e66:	48 89 fb             	mov    %rdi,%rbx
    3e69:	51                   	push   %rcx
    3e6a:	e8 68 00 00 00       	call   3ed7 <pthread_rwlock_trywrlock>
    3e6f:	83 f8 10             	cmp    $0x10,%eax
    3e72:	75 5f                	jne    3ed3 <pthread_rwlock_timedwrlock+0x72>
    3e74:	b8 65 00 00 00       	mov    $0x65,%eax
    3e79:	ff c8                	dec    %eax
    3e7b:	74 17                	je     3e94 <pthread_rwlock_timedwrlock+0x33>
    3e7d:	8b 13                	mov    (%rbx),%edx
    3e7f:	85 d2                	test   %edx,%edx
    3e81:	74 11                	je     3e94 <pthread_rwlock_timedwrlock+0x33>
    3e83:	8b 53 04             	mov    0x4(%rbx),%edx
    3e86:	85 d2                	test   %edx,%edx
    3e88:	75 0a                	jne    3e94 <pthread_rwlock_timedwrlock+0x33>
    3e8a:	f3 90                	pause  
    3e8c:	eb eb                	jmp    3e79 <pthread_rwlock_timedwrlock+0x18>
    3e8e:	8b 03                	mov    (%rbx),%eax
    3e90:	85 c0                	test   %eax,%eax
    3e92:	75 0f                	jne    3ea3 <pthread_rwlock_timedwrlock+0x42>
    3e94:	48 89 df             	mov    %rbx,%rdi
    3e97:	e8 3b 00 00 00       	call   3ed7 <pthread_rwlock_trywrlock>
    3e9c:	83 f8 10             	cmp    $0x10,%eax
    3e9f:	74 ed                	je     3e8e <pthread_rwlock_timedwrlock+0x2d>
    3ea1:	eb 30                	jmp    3ed3 <pthread_rwlock_timedwrlock+0x72>
    3ea3:	89 c6                	mov    %eax,%esi
    3ea5:	81 ce 00 00 00 80    	or     $0x80000000,%esi
    3eab:	f0 ff 43 04          	lock incl 0x4(%rbx)
    3eaf:	f0 0f b1 33          	lock cmpxchg %esi,(%rbx)
    3eb3:	44 8b 43 08          	mov    0x8(%rbx),%r8d
    3eb7:	48 89 e9             	mov    %rbp,%rcx
    3eba:	31 d2                	xor    %edx,%edx
    3ebc:	48 89 df             	mov    %rbx,%rdi
    3ebf:	41 80 f0 80          	xor    $0x80,%r8b
    3ec3:	e8 41 ff ff ff       	call   3e09 <__timedwait>
    3ec8:	f0 ff 4b 04          	lock decl 0x4(%rbx)
    3ecc:	a9 fb ff ff ff       	test   $0xfffffffb,%eax
    3ed1:	74 c1                	je     3e94 <pthread_rwlock_timedwrlock+0x33>
    3ed3:	5a                   	pop    %rdx
    3ed4:	5b                   	pop    %rbx
    3ed5:	5d                   	pop    %rbp
    3ed6:	c3                   	ret    

0000000000003ed7 <pthread_rwlock_trywrlock>:
    3ed7:	31 c0                	xor    %eax,%eax
    3ed9:	ba ff ff ff 7f       	mov    $0x7fffffff,%edx
    3ede:	f0 0f b1 17          	lock cmpxchg %edx,(%rdi)
    3ee2:	85 c0                	test   %eax,%eax
    3ee4:	0f 95 c0             	setne  %al
    3ee7:	0f b6 c0             	movzbl %al,%eax
    3eea:	c1 e0 04             	shl    $0x4,%eax
    3eed:	c3                   	ret    

0000000000003eee <pthread_setcancelstate>:
    3eee:	b8 16 00 00 00       	mov    $0x16,%eax
    3ef3:	83 ff 02             	cmp    $0x2,%edi
    3ef6:	77 1a                	ja     3f12 <pthread_setcancelstate+0x24>
    3ef8:	64 48 8b 14 25 00 00 	mov    %fs:0x0,%rdx
    3eff:	00 00 
    3f01:	48 85 f6             	test   %rsi,%rsi
    3f04:	74 06                	je     3f0c <pthread_setcancelstate+0x1e>
    3f06:	0f b6 42 40          	movzbl 0x40(%rdx),%eax
    3f0a:	89 06                	mov    %eax,(%rsi)
    3f0c:	40 88 7a 40          	mov    %dil,0x40(%rdx)
    3f10:	31 c0                	xor    %eax,%eax
    3f12:	c3                   	ret    

0000000000003f13 <__set_thread_area>:
    3f13:	48 89 fe             	mov    %rdi,%rsi
    3f16:	bf 02 10 00 00       	mov    $0x1002,%edi
    3f1b:	b8 9e 00 00 00       	mov    $0x9e,%eax
    3f20:	0f 05                	syscall 
    3f22:	c3                   	ret    

0000000000003f23 <cgt_init>:
    3f23:	41 54                	push   %r12
    3f25:	49 89 f4             	mov    %rsi,%r12
    3f28:	48 8d 35 5d 13 00 00 	lea    0x135d(%rip),%rsi        # 528c <errmsgstr+0x72c>
    3f2f:	55                   	push   %rbp
    3f30:	89 fd                	mov    %edi,%ebp
    3f32:	48 8d 3d 68 13 00 00 	lea    0x1368(%rip),%rdi        # 52a1 <errmsgstr+0x741>
    3f39:	41 50                	push   %r8
    3f3b:	e8 a0 00 00 00       	call   3fe0 <__vdsosym>
    3f40:	48 89 c2             	mov    %rax,%rdx
    3f43:	48 8d 05 d9 ff ff ff 	lea    -0x27(%rip),%rax        # 3f23 <cgt_init>
    3f4a:	f0 48 0f b1 15 dd 22 	lock cmpxchg %rdx,0x2022dd(%rip)        # 206230 <vdso_func>
    3f51:	20 00 
    3f53:	48 85 d2             	test   %rdx,%rdx
    3f56:	74 0b                	je     3f63 <cgt_init+0x40>
    3f58:	59                   	pop    %rcx
    3f59:	4c 89 e6             	mov    %r12,%rsi
    3f5c:	89 ef                	mov    %ebp,%edi
    3f5e:	5d                   	pop    %rbp
    3f5f:	41 5c                	pop    %r12
    3f61:	ff e2                	jmp    *%rdx
    3f63:	5a                   	pop    %rdx
    3f64:	b8 da ff ff ff       	mov    $0xffffffda,%eax
    3f69:	5d                   	pop    %rbp
    3f6a:	41 5c                	pop    %r12
    3f6c:	c3                   	ret    

0000000000003f6d <clock_gettime>:
    3f6d:	55                   	push   %rbp
    3f6e:	48 89 f5             	mov    %rsi,%rbp
    3f71:	53                   	push   %rbx
    3f72:	89 fb                	mov    %edi,%ebx
    3f74:	51                   	push   %rcx
    3f75:	48 8b 05 b4 22 20 00 	mov    0x2022b4(%rip),%rax        # 206230 <vdso_func>
    3f7c:	48 85 c0             	test   %rax,%rax
    3f7f:	74 12                	je     3f93 <clock_gettime+0x26>
    3f81:	ff d0                	call   *%rax
    3f83:	85 c0                	test   %eax,%eax
    3f85:	74 4e                	je     3fd5 <clock_gettime+0x68>
    3f87:	48 c7 c7 ea ff ff ff 	mov    $0xffffffffffffffea,%rdi
    3f8e:	83 f8 ea             	cmp    $0xffffffea,%eax
    3f91:	74 3d                	je     3fd0 <clock_gettime+0x63>
    3f93:	48 63 fb             	movslq %ebx,%rdi
    3f96:	b8 e4 00 00 00       	mov    $0xe4,%eax
    3f9b:	48 89 ee             	mov    %rbp,%rsi
    3f9e:	0f 05                	syscall 
    3fa0:	48 63 f8             	movslq %eax,%rdi
    3fa3:	83 f8 da             	cmp    $0xffffffda,%eax
    3fa6:	75 28                	jne    3fd0 <clock_gettime+0x63>
    3fa8:	48 c7 c7 ea ff ff ff 	mov    $0xffffffffffffffea,%rdi
    3faf:	85 db                	test   %ebx,%ebx
    3fb1:	75 1d                	jne    3fd0 <clock_gettime+0x63>
    3fb3:	b8 60 00 00 00       	mov    $0x60,%eax
    3fb8:	31 f6                	xor    %esi,%esi
    3fba:	48 89 ef             	mov    %rbp,%rdi
    3fbd:	0f 05                	syscall 
    3fbf:	69 45 08 e8 03 00 00 	imul   $0x3e8,0x8(%rbp),%eax
    3fc6:	48 98                	cltq   
    3fc8:	48 89 45 08          	mov    %rax,0x8(%rbp)
    3fcc:	31 c0                	xor    %eax,%eax
    3fce:	eb 05                	jmp    3fd5 <clock_gettime+0x68>
    3fd0:	e8 4b cf ff ff       	call   f20 <__syscall_ret>
    3fd5:	5a                   	pop    %rdx
    3fd6:	5b                   	pop    %rbx
    3fd7:	5d                   	pop    %rbp
    3fd8:	c3                   	ret    
    3fd9:	0f 1f 80 00 00 00 00 	nopl   0x0(%rax)

0000000000003fe0 <__vdsosym>:
    3fe0:	41 57                	push   %r15
    3fe2:	41 56                	push   %r14
    3fe4:	41 55                	push   %r13
    3fe6:	41 54                	push   %r12
    3fe8:	49 89 fc             	mov    %rdi,%r12
    3feb:	55                   	push   %rbp
    3fec:	48 89 f5             	mov    %rsi,%rbp
    3fef:	53                   	push   %rbx
    3ff0:	48 83 ec 28          	sub    $0x28,%rsp
    3ff4:	48 8b 35 cd 22 20 00 	mov    0x2022cd(%rip),%rsi        # 2062c8 <__libc+0x8>
    3ffb:	48 8b 06             	mov    (%rsi),%rax
    3ffe:	48 83 f8 21          	cmp    $0x21,%rax
    4002:	0f 84 89 02 00 00    	je     4291 <__vdsosym+0x2b1>
    4008:	31 c9                	xor    %ecx,%ecx
    400a:	eb 15                	jmp    4021 <__vdsosym+0x41>
    400c:	0f 1f 40 00          	nopl   0x0(%rax)
    4010:	48 8d 51 02          	lea    0x2(%rcx),%rdx
    4014:	48 8b 04 d6          	mov    (%rsi,%rdx,8),%rax
    4018:	48 83 f8 21          	cmp    $0x21,%rax
    401c:	74 22                	je     4040 <__vdsosym+0x60>
    401e:	48 89 d1             	mov    %rdx,%rcx
    4021:	48 85 c0             	test   %rax,%rax
    4024:	75 ea                	jne    4010 <__vdsosym+0x30>
    4026:	31 c0                	xor    %eax,%eax
    4028:	48 83 c4 28          	add    $0x28,%rsp
    402c:	5b                   	pop    %rbx
    402d:	5d                   	pop    %rbp
    402e:	41 5c                	pop    %r12
    4030:	41 5d                	pop    %r13
    4032:	41 5e                	pop    %r14
    4034:	41 5f                	pop    %r15
    4036:	c3                   	ret    
    4037:	66 0f 1f 84 00 00 00 	nopw   0x0(%rax,%rax,1)
    403e:	00 00 
    4040:	48 8d 04 cd 18 00 00 	lea    0x18(,%rcx,8),%rax
    4047:	00 
    4048:	48 8b 3c 06          	mov    (%rsi,%rax,1),%rdi
    404c:	48 85 ff             	test   %rdi,%rdi
    404f:	74 d5                	je     4026 <__vdsosym+0x46>
    4051:	48 8b 47 20          	mov    0x20(%rdi),%rax
    4055:	44 0f b7 47 38       	movzwl 0x38(%rdi),%r8d
    405a:	48 01 f8             	add    %rdi,%rax
    405d:	4d 85 c0             	test   %r8,%r8
    4060:	74 c4                	je     4026 <__vdsosym+0x46>
    4062:	44 0f b7 4f 36       	movzwl 0x36(%rdi),%r9d
    4067:	49 c7 c5 ff ff ff ff 	mov    $0xffffffffffffffff,%r13
    406e:	31 d2                	xor    %edx,%edx
    4070:	31 c9                	xor    %ecx,%ecx
    4072:	eb 1c                	jmp    4090 <__vdsosym+0xb0>
    4074:	0f 1f 40 00          	nopl   0x0(%rax)
    4078:	83 fe 02             	cmp    $0x2,%esi
    407b:	75 07                	jne    4084 <__vdsosym+0xa4>
    407d:	48 8b 50 08          	mov    0x8(%rax),%rdx
    4081:	48 01 fa             	add    %rdi,%rdx
    4084:	48 83 c1 01          	add    $0x1,%rcx
    4088:	4c 01 c8             	add    %r9,%rax
    408b:	49 39 c8             	cmp    %rcx,%r8
    408e:	74 1e                	je     40ae <__vdsosym+0xce>
    4090:	8b 30                	mov    (%rax),%esi
    4092:	83 fe 01             	cmp    $0x1,%esi
    4095:	75 e1                	jne    4078 <__vdsosym+0x98>
    4097:	4c 8b 68 08          	mov    0x8(%rax),%r13
    409b:	48 83 c1 01          	add    $0x1,%rcx
    409f:	49 01 fd             	add    %rdi,%r13
    40a2:	4c 2b 68 10          	sub    0x10(%rax),%r13
    40a6:	4c 01 c8             	add    %r9,%rax
    40a9:	49 39 c8             	cmp    %rcx,%r8
    40ac:	75 e2                	jne    4090 <__vdsosym+0xb0>
    40ae:	48 85 d2             	test   %rdx,%rdx
    40b1:	0f 84 6f ff ff ff    	je     4026 <__vdsosym+0x46>
    40b7:	49 83 fd ff          	cmp    $0xffffffffffffffff,%r13
    40bb:	0f 84 65 ff ff ff    	je     4026 <__vdsosym+0x46>
    40c1:	48 8b 1a             	mov    (%rdx),%rbx
    40c4:	48 85 db             	test   %rbx,%rbx
    40c7:	0f 84 59 ff ff ff    	je     4026 <__vdsosym+0x46>
    40cd:	48 8d 42 08          	lea    0x8(%rdx),%rax
    40d1:	45 31 ff             	xor    %r15d,%r15d
    40d4:	45 31 c0             	xor    %r8d,%r8d
    40d7:	31 c9                	xor    %ecx,%ecx
    40d9:	31 f6                	xor    %esi,%esi
    40db:	45 31 f6             	xor    %r14d,%r14d
    40de:	eb 20                	jmp    4100 <__vdsosym+0x120>
    40e0:	48 83 fb 04          	cmp    $0x4,%rbx
    40e4:	0f 84 36 01 00 00    	je     4220 <__vdsosym+0x240>
    40ea:	48 83 fb 05          	cmp    $0x5,%rbx
    40ee:	4c 0f 44 f2          	cmove  %rdx,%r14
    40f2:	48 8b 58 08          	mov    0x8(%rax),%rbx
    40f6:	48 83 c0 10          	add    $0x10,%rax
    40fa:	48 85 db             	test   %rbx,%rbx
    40fd:	74 38                	je     4137 <__vdsosym+0x157>
    40ff:	90                   	nop
    4100:	48 8b 10             	mov    (%rax),%rdx
    4103:	4c 01 ea             	add    %r13,%rdx
    4106:	48 83 fb 06          	cmp    $0x6,%rbx
    410a:	0f 84 30 01 00 00    	je     4240 <__vdsosym+0x260>
    4110:	76 ce                	jbe    40e0 <__vdsosym+0x100>
    4112:	48 81 fb f0 ff ff 6f 	cmp    $0x6ffffff0,%rbx
    4119:	0f 84 11 01 00 00    	je     4230 <__vdsosym+0x250>
    411f:	48 81 fb fc ff ff 6f 	cmp    $0x6ffffffc,%rbx
    4126:	4c 0f 44 fa          	cmove  %rdx,%r15
    412a:	48 8b 58 08          	mov    0x8(%rax),%rbx
    412e:	48 83 c0 10          	add    $0x10,%rax
    4132:	48 85 db             	test   %rbx,%rbx
    4135:	75 c9                	jne    4100 <__vdsosym+0x120>
    4137:	4d 85 f6             	test   %r14,%r14
    413a:	0f 94 c0             	sete   %al
    413d:	48 85 f6             	test   %rsi,%rsi
    4140:	0f 94 c2             	sete   %dl
    4143:	08 d0                	or     %dl,%al
    4145:	0f 85 db fe ff ff    	jne    4026 <__vdsosym+0x46>
    414b:	48 85 c9             	test   %rcx,%rcx
    414e:	0f 84 d2 fe ff ff    	je     4026 <__vdsosym+0x46>
    4154:	8b 79 04             	mov    0x4(%rcx),%edi
    4157:	4d 85 ff             	test   %r15,%r15
    415a:	4c 0f 44 c3          	cmove  %rbx,%r8
    415e:	85 ff                	test   %edi,%edi
    4160:	0f 84 c0 fe ff ff    	je     4026 <__vdsosym+0x46>
    4166:	48 89 f2             	mov    %rsi,%rdx
    4169:	41 b9 27 00 00 00    	mov    $0x27,%r9d
    416f:	90                   	nop
    4170:	0f b6 42 04          	movzbl 0x4(%rdx),%eax
    4174:	89 c6                	mov    %eax,%esi
    4176:	83 e6 0f             	and    $0xf,%esi
    4179:	41 0f a3 f1          	bt     %esi,%r9d
    417d:	0f 83 7d 00 00 00    	jae    4200 <__vdsosym+0x220>
    4183:	c0 e8 04             	shr    $0x4,%al
    4186:	be 06 04 00 00       	mov    $0x406,%esi
    418b:	0f a3 c6             	bt     %eax,%esi
    418e:	73 70                	jae    4200 <__vdsosym+0x220>
    4190:	66 83 7a 06 00       	cmpw   $0x0,0x6(%rdx)
    4195:	74 69                	je     4200 <__vdsosym+0x220>
    4197:	8b 32                	mov    (%rdx),%esi
    4199:	48 89 ef             	mov    %rbp,%rdi
    419c:	4c 89 44 24 18       	mov    %r8,0x18(%rsp)
    41a1:	48 89 4c 24 10       	mov    %rcx,0x10(%rsp)
    41a6:	4c 01 f6             	add    %r14,%rsi
    41a9:	48 89 54 24 08       	mov    %rdx,0x8(%rsp)
    41ae:	e8 1d 03 00 00       	call   44d0 <strcmp>
    41b3:	48 8b 54 24 08       	mov    0x8(%rsp),%rdx
    41b8:	48 8b 4c 24 10       	mov    0x10(%rsp),%rcx
    41bd:	41 b9 27 00 00 00    	mov    $0x27,%r9d
    41c3:	85 c0                	test   %eax,%eax
    41c5:	4c 8b 44 24 18       	mov    0x18(%rsp),%r8
    41ca:	75 30                	jne    41fc <__vdsosym+0x21c>
    41cc:	4d 85 c0             	test   %r8,%r8
    41cf:	0f 84 b0 00 00 00    	je     4285 <__vdsosym+0x2a5>
    41d5:	41 0f b7 3c 58       	movzwl (%r8,%rbx,2),%edi
    41da:	4c 89 fe             	mov    %r15,%rsi
    41dd:	eb 04                	jmp    41e3 <__vdsosym+0x203>
    41df:	90                   	nop
    41e0:	48 01 c6             	add    %rax,%rsi
    41e3:	f6 46 02 01          	testb  $0x1,0x2(%rsi)
    41e7:	75 0c                	jne    41f5 <__vdsosym+0x215>
    41e9:	0f b7 46 04          	movzwl 0x4(%rsi),%eax
    41ed:	31 f8                	xor    %edi,%eax
    41ef:	66 a9 ff 7f          	test   $0x7fff,%ax
    41f3:	74 53                	je     4248 <__vdsosym+0x268>
    41f5:	8b 46 10             	mov    0x10(%rsi),%eax
    41f8:	85 c0                	test   %eax,%eax
    41fa:	75 e4                	jne    41e0 <__vdsosym+0x200>
    41fc:	8b 79 04             	mov    0x4(%rcx),%edi
    41ff:	90                   	nop
    4200:	48 83 c3 01          	add    $0x1,%rbx
    4204:	89 f8                	mov    %edi,%eax
    4206:	48 83 c2 18          	add    $0x18,%rdx
    420a:	48 39 d8             	cmp    %rbx,%rax
    420d:	0f 87 5d ff ff ff    	ja     4170 <__vdsosym+0x190>
    4213:	e9 0e fe ff ff       	jmp    4026 <__vdsosym+0x46>
    4218:	0f 1f 84 00 00 00 00 	nopl   0x0(%rax,%rax,1)
    421f:	00 
    4220:	48 89 d1             	mov    %rdx,%rcx
    4223:	e9 ca fe ff ff       	jmp    40f2 <__vdsosym+0x112>
    4228:	0f 1f 84 00 00 00 00 	nopl   0x0(%rax,%rax,1)
    422f:	00 
    4230:	49 89 d0             	mov    %rdx,%r8
    4233:	e9 ba fe ff ff       	jmp    40f2 <__vdsosym+0x112>
    4238:	0f 1f 84 00 00 00 00 	nopl   0x0(%rax,%rax,1)
    423f:	00 
    4240:	48 89 d6             	mov    %rdx,%rsi
    4243:	e9 aa fe ff ff       	jmp    40f2 <__vdsosym+0x112>
    4248:	8b 46 0c             	mov    0xc(%rsi),%eax
    424b:	4c 89 e7             	mov    %r12,%rdi
    424e:	48 89 54 24 18       	mov    %rdx,0x18(%rsp)
    4253:	4c 89 44 24 10       	mov    %r8,0x10(%rsp)
    4258:	8b 34 06             	mov    (%rsi,%rax,1),%esi
    425b:	48 89 4c 24 08       	mov    %rcx,0x8(%rsp)
    4260:	4c 01 f6             	add    %r14,%rsi
    4263:	e8 68 02 00 00       	call   44d0 <strcmp>
    4268:	48 8b 4c 24 08       	mov    0x8(%rsp),%rcx
    426d:	4c 8b 44 24 10       	mov    0x10(%rsp),%r8
    4272:	41 b9 27 00 00 00    	mov    $0x27,%r9d
    4278:	85 c0                	test   %eax,%eax
    427a:	48 8b 54 24 18       	mov    0x18(%rsp),%rdx
    427f:	0f 85 77 ff ff ff    	jne    41fc <__vdsosym+0x21c>
    4285:	48 8b 42 08          	mov    0x8(%rdx),%rax
    4289:	4c 01 e8             	add    %r13,%rax
    428c:	e9 97 fd ff ff       	jmp    4028 <__vdsosym+0x48>
    4291:	b8 08 00 00 00       	mov    $0x8,%eax
    4296:	e9 ad fd ff ff       	jmp    4048 <__vdsosym+0x68>

000000000000429b <wcrtomb>:
    429b:	41 b8 01 00 00 00    	mov    $0x1,%r8d
    42a1:	48 85 ff             	test   %rdi,%rdi
    42a4:	0f 84 08 01 00 00    	je     43b2 <wcrtomb+0x117>
    42aa:	48 89 fa             	mov    %rdi,%rdx
    42ad:	89 f0                	mov    %esi,%eax
    42af:	83 fe 7f             	cmp    $0x7f,%esi
    42b2:	0f 86 f1 00 00 00    	jbe    43a9 <wcrtomb+0x10e>
    42b8:	51                   	push   %rcx
    42b9:	64 48 8b 0c 25 00 00 	mov    %fs:0x0,%rcx
    42c0:	00 00 
    42c2:	48 8b 89 a8 00 00 00 	mov    0xa8(%rcx),%rcx
    42c9:	48 83 39 00          	cmpq   $0x0,(%rcx)
    42cd:	75 1c                	jne    42eb <wcrtomb+0x50>
    42cf:	8d 8e 80 20 ff ff    	lea    -0xdf80(%rsi),%ecx
    42d5:	83 f9 7f             	cmp    $0x7f,%ecx
    42d8:	0f 87 b7 00 00 00    	ja     4395 <wcrtomb+0xfa>
    42de:	88 02                	mov    %al,(%rdx)
    42e0:	41 b8 01 00 00 00    	mov    $0x1,%r8d
    42e6:	e9 b9 00 00 00       	jmp    43a4 <wcrtomb+0x109>
    42eb:	81 fe ff 07 00 00    	cmp    $0x7ff,%esi
    42f1:	77 1e                	ja     4311 <wcrtomb+0x76>
    42f3:	89 f1                	mov    %esi,%ecx
    42f5:	83 e0 3f             	and    $0x3f,%eax
    42f8:	41 b8 02 00 00 00    	mov    $0x2,%r8d
    42fe:	c1 f9 06             	sar    $0x6,%ecx
    4301:	83 c8 80             	or     $0xffffff80,%eax
    4304:	83 c9 c0             	or     $0xffffffc0,%ecx
    4307:	88 47 01             	mov    %al,0x1(%rdi)
    430a:	88 0f                	mov    %cl,(%rdi)
    430c:	e9 93 00 00 00       	jmp    43a4 <wcrtomb+0x109>
    4311:	8d 8e 00 20 ff ff    	lea    -0xe000(%rsi),%ecx
    4317:	81 f9 ff 1f 00 00    	cmp    $0x1fff,%ecx
    431d:	76 08                	jbe    4327 <wcrtomb+0x8c>
    431f:	81 fe ff d7 00 00    	cmp    $0xd7ff,%esi
    4325:	77 29                	ja     4350 <wcrtomb+0xb5>
    4327:	89 c1                	mov    %eax,%ecx
    4329:	41 b8 03 00 00 00    	mov    $0x3,%r8d
    432f:	c1 f9 0c             	sar    $0xc,%ecx
    4332:	83 c9 e0             	or     $0xffffffe0,%ecx
    4335:	88 0a                	mov    %cl,(%rdx)
    4337:	89 c1                	mov    %eax,%ecx
    4339:	83 e0 3f             	and    $0x3f,%eax
    433c:	c1 f9 06             	sar    $0x6,%ecx
    433f:	83 c8 80             	or     $0xffffff80,%eax
    4342:	83 e1 3f             	and    $0x3f,%ecx
    4345:	88 42 02             	mov    %al,0x2(%rdx)
    4348:	83 c9 80             	or     $0xffffff80,%ecx
    434b:	88 4a 01             	mov    %cl,0x1(%rdx)
    434e:	eb 54                	jmp    43a4 <wcrtomb+0x109>
    4350:	8d 8e 00 00 ff ff    	lea    -0x10000(%rsi),%ecx
    4356:	81 f9 ff ff 0f 00    	cmp    $0xfffff,%ecx
    435c:	77 37                	ja     4395 <wcrtomb+0xfa>
    435e:	89 f1                	mov    %esi,%ecx
    4360:	83 e0 3f             	and    $0x3f,%eax
    4363:	41 b8 04 00 00 00    	mov    $0x4,%r8d
    4369:	c1 f9 12             	sar    $0x12,%ecx
    436c:	83 c8 80             	or     $0xffffff80,%eax
    436f:	83 c9 f0             	or     $0xfffffff0,%ecx
    4372:	88 47 03             	mov    %al,0x3(%rdi)
    4375:	88 0f                	mov    %cl,(%rdi)
    4377:	89 f1                	mov    %esi,%ecx
    4379:	c1 f9 0c             	sar    $0xc,%ecx
    437c:	83 e1 3f             	and    $0x3f,%ecx
    437f:	83 c9 80             	or     $0xffffff80,%ecx
    4382:	88 4f 01             	mov    %cl,0x1(%rdi)
    4385:	89 f1                	mov    %esi,%ecx
    4387:	c1 f9 06             	sar    $0x6,%ecx
    438a:	83 e1 3f             	and    $0x3f,%ecx
    438d:	83 c9 80             	or     $0xffffff80,%ecx
    4390:	88 4f 02             	mov    %cl,0x2(%rdi)
    4393:	eb 0f                	jmp    43a4 <wcrtomb+0x109>
    4395:	e8 d4 f0 ff ff       	call   346e <__errno_location>
    439a:	49 83 c8 ff          	or     $0xffffffffffffffff,%r8
    439e:	c7 00 54 00 00 00    	movl   $0x54,(%rax)
    43a4:	4c 89 c0             	mov    %r8,%rax
    43a7:	5a                   	pop    %rdx
    43a8:	c3                   	ret    
    43a9:	40 88 32             	mov    %sil,(%rdx)
    43ac:	41 b8 01 00 00 00    	mov    $0x1,%r8d
    43b2:	4c 89 c0             	mov    %r8,%rax
    43b5:	c3                   	ret    

00000000000043b6 <__overflow>:
    43b6:	53                   	push   %rbx
    43b7:	48 89 fb             	mov    %rdi,%rbx
    43ba:	48 83 ec 10          	sub    $0x10,%rsp
    43be:	48 83 7f 20 00       	cmpq   $0x0,0x20(%rdi)
    43c3:	40 88 74 24 0f       	mov    %sil,0xf(%rsp)
    43c8:	74 0c                	je     43d6 <__overflow+0x20>
    43ca:	48 8b 53 28          	mov    0x28(%rbx),%rdx
    43ce:	48 3b 53 20          	cmp    0x20(%rbx),%rdx
    43d2:	75 10                	jne    43e4 <__overflow+0x2e>
    43d4:	eb 27                	jmp    43fd <__overflow+0x47>
    43d6:	e8 bc f5 ff ff       	call   3997 <__towrite>
    43db:	85 c0                	test   %eax,%eax
    43dd:	74 eb                	je     43ca <__overflow+0x14>
    43df:	83 c8 ff             	or     $0xffffffff,%eax
    43e2:	eb 33                	jmp    4417 <__overflow+0x61>
    43e4:	0f b6 44 24 0f       	movzbl 0xf(%rsp),%eax
    43e9:	3b 83 90 00 00 00    	cmp    0x90(%rbx),%eax
    43ef:	74 0c                	je     43fd <__overflow+0x47>
    43f1:	48 8d 72 01          	lea    0x1(%rdx),%rsi
    43f5:	48 89 73 28          	mov    %rsi,0x28(%rbx)
    43f9:	88 02                	mov    %al,(%rdx)
    43fb:	eb 1a                	jmp    4417 <__overflow+0x61>
    43fd:	48 8d 74 24 0f       	lea    0xf(%rsp),%rsi
    4402:	ba 01 00 00 00       	mov    $0x1,%edx
    4407:	48 89 df             	mov    %rbx,%rdi
    440a:	ff 53 48             	call   *0x48(%rbx)
    440d:	48 ff c8             	dec    %rax
    4410:	75 cd                	jne    43df <__overflow+0x29>
    4412:	0f b6 44 24 0f       	movzbl 0xf(%rsp),%eax
    4417:	48 83 c4 10          	add    $0x10,%rsp
    441b:	5b                   	pop    %rbx
    441c:	c3                   	ret    

000000000000441d <close_file>:
    441d:	48 85 ff             	test   %rdi,%rdi
    4420:	74 48                	je     446a <close_file+0x4d>
    4422:	55                   	push   %rbp
    4423:	8b 87 8c 00 00 00    	mov    0x8c(%rdi),%eax
    4429:	48 89 fd             	mov    %rdi,%rbp
    442c:	85 c0                	test   %eax,%eax
    442e:	78 05                	js     4435 <close_file+0x18>
    4430:	e8 1e f3 ff ff       	call   3753 <__lockfile>
    4435:	48 8b 45 38          	mov    0x38(%rbp),%rax
    4439:	48 39 45 28          	cmp    %rax,0x28(%rbp)
    443d:	74 0a                	je     4449 <close_file+0x2c>
    443f:	31 d2                	xor    %edx,%edx
    4441:	31 f6                	xor    %esi,%esi
    4443:	48 89 ef             	mov    %rbp,%rdi
    4446:	ff 55 48             	call   *0x48(%rbp)
    4449:	48 8b 75 08          	mov    0x8(%rbp),%rsi
    444d:	48 8b 45 10          	mov    0x10(%rbp),%rax
    4451:	48 39 c6             	cmp    %rax,%rsi
    4454:	74 12                	je     4468 <close_file+0x4b>
    4456:	48 29 c6             	sub    %rax,%rsi
    4459:	48 89 ef             	mov    %rbp,%rdi
    445c:	48 8b 45 50          	mov    0x50(%rbp),%rax
    4460:	ba 01 00 00 00       	mov    $0x1,%edx
    4465:	5d                   	pop    %rbp
    4466:	ff e0                	jmp    *%rax
    4468:	5d                   	pop    %rbp
    4469:	c3                   	ret    
    446a:	c3                   	ret    

000000000000446b <__stdio_exit>:
    446b:	53                   	push   %rbx
    446c:	e8 3b 00 00 00       	call   44ac <__ofl_lock>
